
;CodeVisionAVR C Compiler V3.12 Advanced
;(C) Copyright 1998-2014 Pavel Haiduc, HP InfoTech s.r.l.
;http://www.hpinfotech.com

;Build configuration    : Debug
;Chip type              : ATmega16
;Program type           : Application
;Clock frequency        : 8.000000 MHz
;Memory model           : Small
;Optimize for           : Size
;(s)printf features     : int, width
;(s)scanf features      : int, width
;External RAM size      : 0
;Data Stack size        : 256 byte(s)
;Heap size              : 0 byte(s)
;Promote 'char' to 'int': Yes
;'char' is unsigned     : Yes
;8 bit enums            : Yes
;Global 'const' stored in FLASH: Yes
;Enhanced function parameter passing: Yes
;Enhanced core instructions: On
;Automatic register allocation for global variables: On
;Smart register allocation: On

	#define _MODEL_SMALL_

	#pragma AVRPART ADMIN PART_NAME ATmega16
	#pragma AVRPART MEMORY PROG_FLASH 16384
	#pragma AVRPART MEMORY EEPROM 512
	#pragma AVRPART MEMORY INT_SRAM SIZE 1024
	#pragma AVRPART MEMORY INT_SRAM START_ADDR 0x60

	#define CALL_SUPPORTED 1

	.LISTMAC
	.EQU UDRE=0x5
	.EQU RXC=0x7
	.EQU USR=0xB
	.EQU UDR=0xC
	.EQU SPSR=0xE
	.EQU SPDR=0xF
	.EQU EERE=0x0
	.EQU EEWE=0x1
	.EQU EEMWE=0x2
	.EQU EECR=0x1C
	.EQU EEDR=0x1D
	.EQU EEARL=0x1E
	.EQU EEARH=0x1F
	.EQU WDTCR=0x21
	.EQU MCUCR=0x35
	.EQU GICR=0x3B
	.EQU SPL=0x3D
	.EQU SPH=0x3E
	.EQU SREG=0x3F

	.DEF R0X0=R0
	.DEF R0X1=R1
	.DEF R0X2=R2
	.DEF R0X3=R3
	.DEF R0X4=R4
	.DEF R0X5=R5
	.DEF R0X6=R6
	.DEF R0X7=R7
	.DEF R0X8=R8
	.DEF R0X9=R9
	.DEF R0XA=R10
	.DEF R0XB=R11
	.DEF R0XC=R12
	.DEF R0XD=R13
	.DEF R0XE=R14
	.DEF R0XF=R15
	.DEF R0X10=R16
	.DEF R0X11=R17
	.DEF R0X12=R18
	.DEF R0X13=R19
	.DEF R0X14=R20
	.DEF R0X15=R21
	.DEF R0X16=R22
	.DEF R0X17=R23
	.DEF R0X18=R24
	.DEF R0X19=R25
	.DEF R0X1A=R26
	.DEF R0X1B=R27
	.DEF R0X1C=R28
	.DEF R0X1D=R29
	.DEF R0X1E=R30
	.DEF R0X1F=R31

	.EQU __SRAM_START=0x0060
	.EQU __SRAM_END=0x045F
	.EQU __DSTACK_SIZE=0x0100
	.EQU __HEAP_SIZE=0x0000
	.EQU __CLEAR_SRAM_SIZE=__SRAM_END-__SRAM_START+1

	.MACRO __CPD1N
	CPI  R30,LOW(@0)
	LDI  R26,HIGH(@0)
	CPC  R31,R26
	LDI  R26,BYTE3(@0)
	CPC  R22,R26
	LDI  R26,BYTE4(@0)
	CPC  R23,R26
	.ENDM

	.MACRO __CPD2N
	CPI  R26,LOW(@0)
	LDI  R30,HIGH(@0)
	CPC  R27,R30
	LDI  R30,BYTE3(@0)
	CPC  R24,R30
	LDI  R30,BYTE4(@0)
	CPC  R25,R30
	.ENDM

	.MACRO __CPWRR
	CP   R@0,R@2
	CPC  R@1,R@3
	.ENDM

	.MACRO __CPWRN
	CPI  R@0,LOW(@2)
	LDI  R30,HIGH(@2)
	CPC  R@1,R30
	.ENDM

	.MACRO __ADDB1MN
	SUBI R30,LOW(-@0-(@1))
	.ENDM

	.MACRO __ADDB2MN
	SUBI R26,LOW(-@0-(@1))
	.ENDM

	.MACRO __ADDW1MN
	SUBI R30,LOW(-@0-(@1))
	SBCI R31,HIGH(-@0-(@1))
	.ENDM

	.MACRO __ADDW2MN
	SUBI R26,LOW(-@0-(@1))
	SBCI R27,HIGH(-@0-(@1))
	.ENDM

	.MACRO __ADDW1FN
	SUBI R30,LOW(-2*@0-(@1))
	SBCI R31,HIGH(-2*@0-(@1))
	.ENDM

	.MACRO __ADDD1FN
	SUBI R30,LOW(-2*@0-(@1))
	SBCI R31,HIGH(-2*@0-(@1))
	SBCI R22,BYTE3(-2*@0-(@1))
	.ENDM

	.MACRO __ADDD1N
	SUBI R30,LOW(-@0)
	SBCI R31,HIGH(-@0)
	SBCI R22,BYTE3(-@0)
	SBCI R23,BYTE4(-@0)
	.ENDM

	.MACRO __ADDD2N
	SUBI R26,LOW(-@0)
	SBCI R27,HIGH(-@0)
	SBCI R24,BYTE3(-@0)
	SBCI R25,BYTE4(-@0)
	.ENDM

	.MACRO __SUBD1N
	SUBI R30,LOW(@0)
	SBCI R31,HIGH(@0)
	SBCI R22,BYTE3(@0)
	SBCI R23,BYTE4(@0)
	.ENDM

	.MACRO __SUBD2N
	SUBI R26,LOW(@0)
	SBCI R27,HIGH(@0)
	SBCI R24,BYTE3(@0)
	SBCI R25,BYTE4(@0)
	.ENDM

	.MACRO __ANDBMNN
	LDS  R30,@0+(@1)
	ANDI R30,LOW(@2)
	STS  @0+(@1),R30
	.ENDM

	.MACRO __ANDWMNN
	LDS  R30,@0+(@1)
	ANDI R30,LOW(@2)
	STS  @0+(@1),R30
	LDS  R30,@0+(@1)+1
	ANDI R30,HIGH(@2)
	STS  @0+(@1)+1,R30
	.ENDM

	.MACRO __ANDD1N
	ANDI R30,LOW(@0)
	ANDI R31,HIGH(@0)
	ANDI R22,BYTE3(@0)
	ANDI R23,BYTE4(@0)
	.ENDM

	.MACRO __ANDD2N
	ANDI R26,LOW(@0)
	ANDI R27,HIGH(@0)
	ANDI R24,BYTE3(@0)
	ANDI R25,BYTE4(@0)
	.ENDM

	.MACRO __ORBMNN
	LDS  R30,@0+(@1)
	ORI  R30,LOW(@2)
	STS  @0+(@1),R30
	.ENDM

	.MACRO __ORWMNN
	LDS  R30,@0+(@1)
	ORI  R30,LOW(@2)
	STS  @0+(@1),R30
	LDS  R30,@0+(@1)+1
	ORI  R30,HIGH(@2)
	STS  @0+(@1)+1,R30
	.ENDM

	.MACRO __ORD1N
	ORI  R30,LOW(@0)
	ORI  R31,HIGH(@0)
	ORI  R22,BYTE3(@0)
	ORI  R23,BYTE4(@0)
	.ENDM

	.MACRO __ORD2N
	ORI  R26,LOW(@0)
	ORI  R27,HIGH(@0)
	ORI  R24,BYTE3(@0)
	ORI  R25,BYTE4(@0)
	.ENDM

	.MACRO __DELAY_USB
	LDI  R24,LOW(@0)
__DELAY_USB_LOOP:
	DEC  R24
	BRNE __DELAY_USB_LOOP
	.ENDM

	.MACRO __DELAY_USW
	LDI  R24,LOW(@0)
	LDI  R25,HIGH(@0)
__DELAY_USW_LOOP:
	SBIW R24,1
	BRNE __DELAY_USW_LOOP
	.ENDM

	.MACRO __GETD1S
	LDD  R30,Y+@0
	LDD  R31,Y+@0+1
	LDD  R22,Y+@0+2
	LDD  R23,Y+@0+3
	.ENDM

	.MACRO __GETD2S
	LDD  R26,Y+@0
	LDD  R27,Y+@0+1
	LDD  R24,Y+@0+2
	LDD  R25,Y+@0+3
	.ENDM

	.MACRO __PUTD1S
	STD  Y+@0,R30
	STD  Y+@0+1,R31
	STD  Y+@0+2,R22
	STD  Y+@0+3,R23
	.ENDM

	.MACRO __PUTD2S
	STD  Y+@0,R26
	STD  Y+@0+1,R27
	STD  Y+@0+2,R24
	STD  Y+@0+3,R25
	.ENDM

	.MACRO __PUTDZ2
	STD  Z+@0,R26
	STD  Z+@0+1,R27
	STD  Z+@0+2,R24
	STD  Z+@0+3,R25
	.ENDM

	.MACRO __CLRD1S
	STD  Y+@0,R30
	STD  Y+@0+1,R30
	STD  Y+@0+2,R30
	STD  Y+@0+3,R30
	.ENDM

	.MACRO __POINTB1MN
	LDI  R30,LOW(@0+(@1))
	.ENDM

	.MACRO __POINTW1MN
	LDI  R30,LOW(@0+(@1))
	LDI  R31,HIGH(@0+(@1))
	.ENDM

	.MACRO __POINTD1M
	LDI  R30,LOW(@0)
	LDI  R31,HIGH(@0)
	LDI  R22,BYTE3(@0)
	LDI  R23,BYTE4(@0)
	.ENDM

	.MACRO __POINTW1FN
	LDI  R30,LOW(2*@0+(@1))
	LDI  R31,HIGH(2*@0+(@1))
	.ENDM

	.MACRO __POINTD1FN
	LDI  R30,LOW(2*@0+(@1))
	LDI  R31,HIGH(2*@0+(@1))
	LDI  R22,BYTE3(2*@0+(@1))
	LDI  R23,BYTE4(2*@0+(@1))
	.ENDM

	.MACRO __POINTB2MN
	LDI  R26,LOW(@0+(@1))
	.ENDM

	.MACRO __POINTW2MN
	LDI  R26,LOW(@0+(@1))
	LDI  R27,HIGH(@0+(@1))
	.ENDM

	.MACRO __POINTW2FN
	LDI  R26,LOW(2*@0+(@1))
	LDI  R27,HIGH(2*@0+(@1))
	.ENDM

	.MACRO __POINTD2FN
	LDI  R26,LOW(2*@0+(@1))
	LDI  R27,HIGH(2*@0+(@1))
	LDI  R24,BYTE3(2*@0+(@1))
	LDI  R25,BYTE4(2*@0+(@1))
	.ENDM

	.MACRO __POINTBRM
	LDI  R@0,LOW(@1)
	.ENDM

	.MACRO __POINTWRM
	LDI  R@0,LOW(@2)
	LDI  R@1,HIGH(@2)
	.ENDM

	.MACRO __POINTBRMN
	LDI  R@0,LOW(@1+(@2))
	.ENDM

	.MACRO __POINTWRMN
	LDI  R@0,LOW(@2+(@3))
	LDI  R@1,HIGH(@2+(@3))
	.ENDM

	.MACRO __POINTWRFN
	LDI  R@0,LOW(@2*2+(@3))
	LDI  R@1,HIGH(@2*2+(@3))
	.ENDM

	.MACRO __GETD1N
	LDI  R30,LOW(@0)
	LDI  R31,HIGH(@0)
	LDI  R22,BYTE3(@0)
	LDI  R23,BYTE4(@0)
	.ENDM

	.MACRO __GETD2N
	LDI  R26,LOW(@0)
	LDI  R27,HIGH(@0)
	LDI  R24,BYTE3(@0)
	LDI  R25,BYTE4(@0)
	.ENDM

	.MACRO __GETB1MN
	LDS  R30,@0+(@1)
	.ENDM

	.MACRO __GETB1HMN
	LDS  R31,@0+(@1)
	.ENDM

	.MACRO __GETW1MN
	LDS  R30,@0+(@1)
	LDS  R31,@0+(@1)+1
	.ENDM

	.MACRO __GETD1MN
	LDS  R30,@0+(@1)
	LDS  R31,@0+(@1)+1
	LDS  R22,@0+(@1)+2
	LDS  R23,@0+(@1)+3
	.ENDM

	.MACRO __GETBRMN
	LDS  R@0,@1+(@2)
	.ENDM

	.MACRO __GETWRMN
	LDS  R@0,@2+(@3)
	LDS  R@1,@2+(@3)+1
	.ENDM

	.MACRO __GETWRZ
	LDD  R@0,Z+@2
	LDD  R@1,Z+@2+1
	.ENDM

	.MACRO __GETD2Z
	LDD  R26,Z+@0
	LDD  R27,Z+@0+1
	LDD  R24,Z+@0+2
	LDD  R25,Z+@0+3
	.ENDM

	.MACRO __GETB2MN
	LDS  R26,@0+(@1)
	.ENDM

	.MACRO __GETW2MN
	LDS  R26,@0+(@1)
	LDS  R27,@0+(@1)+1
	.ENDM

	.MACRO __GETD2MN
	LDS  R26,@0+(@1)
	LDS  R27,@0+(@1)+1
	LDS  R24,@0+(@1)+2
	LDS  R25,@0+(@1)+3
	.ENDM

	.MACRO __PUTB1MN
	STS  @0+(@1),R30
	.ENDM

	.MACRO __PUTW1MN
	STS  @0+(@1),R30
	STS  @0+(@1)+1,R31
	.ENDM

	.MACRO __PUTD1MN
	STS  @0+(@1),R30
	STS  @0+(@1)+1,R31
	STS  @0+(@1)+2,R22
	STS  @0+(@1)+3,R23
	.ENDM

	.MACRO __PUTB1EN
	LDI  R26,LOW(@0+(@1))
	LDI  R27,HIGH(@0+(@1))
	CALL __EEPROMWRB
	.ENDM

	.MACRO __PUTW1EN
	LDI  R26,LOW(@0+(@1))
	LDI  R27,HIGH(@0+(@1))
	CALL __EEPROMWRW
	.ENDM

	.MACRO __PUTD1EN
	LDI  R26,LOW(@0+(@1))
	LDI  R27,HIGH(@0+(@1))
	CALL __EEPROMWRD
	.ENDM

	.MACRO __PUTBR0MN
	STS  @0+(@1),R0
	.ENDM

	.MACRO __PUTBMRN
	STS  @0+(@1),R@2
	.ENDM

	.MACRO __PUTWMRN
	STS  @0+(@1),R@2
	STS  @0+(@1)+1,R@3
	.ENDM

	.MACRO __PUTBZR
	STD  Z+@1,R@0
	.ENDM

	.MACRO __PUTWZR
	STD  Z+@2,R@0
	STD  Z+@2+1,R@1
	.ENDM

	.MACRO __GETW1R
	MOV  R30,R@0
	MOV  R31,R@1
	.ENDM

	.MACRO __GETW2R
	MOV  R26,R@0
	MOV  R27,R@1
	.ENDM

	.MACRO __GETWRN
	LDI  R@0,LOW(@2)
	LDI  R@1,HIGH(@2)
	.ENDM

	.MACRO __PUTW1R
	MOV  R@0,R30
	MOV  R@1,R31
	.ENDM

	.MACRO __PUTW2R
	MOV  R@0,R26
	MOV  R@1,R27
	.ENDM

	.MACRO __ADDWRN
	SUBI R@0,LOW(-@2)
	SBCI R@1,HIGH(-@2)
	.ENDM

	.MACRO __ADDWRR
	ADD  R@0,R@2
	ADC  R@1,R@3
	.ENDM

	.MACRO __SUBWRN
	SUBI R@0,LOW(@2)
	SBCI R@1,HIGH(@2)
	.ENDM

	.MACRO __SUBWRR
	SUB  R@0,R@2
	SBC  R@1,R@3
	.ENDM

	.MACRO __ANDWRN
	ANDI R@0,LOW(@2)
	ANDI R@1,HIGH(@2)
	.ENDM

	.MACRO __ANDWRR
	AND  R@0,R@2
	AND  R@1,R@3
	.ENDM

	.MACRO __ORWRN
	ORI  R@0,LOW(@2)
	ORI  R@1,HIGH(@2)
	.ENDM

	.MACRO __ORWRR
	OR   R@0,R@2
	OR   R@1,R@3
	.ENDM

	.MACRO __EORWRR
	EOR  R@0,R@2
	EOR  R@1,R@3
	.ENDM

	.MACRO __GETWRS
	LDD  R@0,Y+@2
	LDD  R@1,Y+@2+1
	.ENDM

	.MACRO __PUTBSR
	STD  Y+@1,R@0
	.ENDM

	.MACRO __PUTWSR
	STD  Y+@2,R@0
	STD  Y+@2+1,R@1
	.ENDM

	.MACRO __MOVEWRR
	MOV  R@0,R@2
	MOV  R@1,R@3
	.ENDM

	.MACRO __INWR
	IN   R@0,@2
	IN   R@1,@2+1
	.ENDM

	.MACRO __OUTWR
	OUT  @2+1,R@1
	OUT  @2,R@0
	.ENDM

	.MACRO __CALL1MN
	LDS  R30,@0+(@1)
	LDS  R31,@0+(@1)+1
	ICALL
	.ENDM

	.MACRO __CALL1FN
	LDI  R30,LOW(2*@0+(@1))
	LDI  R31,HIGH(2*@0+(@1))
	CALL __GETW1PF
	ICALL
	.ENDM

	.MACRO __CALL2EN
	PUSH R26
	PUSH R27
	LDI  R26,LOW(@0+(@1))
	LDI  R27,HIGH(@0+(@1))
	CALL __EEPROMRDW
	POP  R27
	POP  R26
	ICALL
	.ENDM

	.MACRO __CALL2EX
	SUBI R26,LOW(-@0)
	SBCI R27,HIGH(-@0)
	CALL __EEPROMRDD
	ICALL
	.ENDM

	.MACRO __GETW1STACK
	IN   R30,SPL
	IN   R31,SPH
	ADIW R30,@0+1
	LD   R0,Z+
	LD   R31,Z
	MOV  R30,R0
	.ENDM

	.MACRO __GETD1STACK
	IN   R30,SPL
	IN   R31,SPH
	ADIW R30,@0+1
	LD   R0,Z+
	LD   R1,Z+
	LD   R22,Z
	MOVW R30,R0
	.ENDM

	.MACRO __NBST
	BST  R@0,@1
	IN   R30,SREG
	LDI  R31,0x40
	EOR  R30,R31
	OUT  SREG,R30
	.ENDM


	.MACRO __PUTB1SN
	LDD  R26,Y+@0
	LDD  R27,Y+@0+1
	SUBI R26,LOW(-@1)
	SBCI R27,HIGH(-@1)
	ST   X,R30
	.ENDM

	.MACRO __PUTW1SN
	LDD  R26,Y+@0
	LDD  R27,Y+@0+1
	SUBI R26,LOW(-@1)
	SBCI R27,HIGH(-@1)
	ST   X+,R30
	ST   X,R31
	.ENDM

	.MACRO __PUTD1SN
	LDD  R26,Y+@0
	LDD  R27,Y+@0+1
	SUBI R26,LOW(-@1)
	SBCI R27,HIGH(-@1)
	CALL __PUTDP1
	.ENDM

	.MACRO __PUTB1SNS
	LDD  R26,Y+@0
	LDD  R27,Y+@0+1
	ADIW R26,@1
	ST   X,R30
	.ENDM

	.MACRO __PUTW1SNS
	LDD  R26,Y+@0
	LDD  R27,Y+@0+1
	ADIW R26,@1
	ST   X+,R30
	ST   X,R31
	.ENDM

	.MACRO __PUTD1SNS
	LDD  R26,Y+@0
	LDD  R27,Y+@0+1
	ADIW R26,@1
	CALL __PUTDP1
	.ENDM

	.MACRO __PUTB1PMN
	LDS  R26,@0
	LDS  R27,@0+1
	SUBI R26,LOW(-@1)
	SBCI R27,HIGH(-@1)
	ST   X,R30
	.ENDM

	.MACRO __PUTW1PMN
	LDS  R26,@0
	LDS  R27,@0+1
	SUBI R26,LOW(-@1)
	SBCI R27,HIGH(-@1)
	ST   X+,R30
	ST   X,R31
	.ENDM

	.MACRO __PUTD1PMN
	LDS  R26,@0
	LDS  R27,@0+1
	SUBI R26,LOW(-@1)
	SBCI R27,HIGH(-@1)
	CALL __PUTDP1
	.ENDM

	.MACRO __PUTB1PMNS
	LDS  R26,@0
	LDS  R27,@0+1
	ADIW R26,@1
	ST   X,R30
	.ENDM

	.MACRO __PUTW1PMNS
	LDS  R26,@0
	LDS  R27,@0+1
	ADIW R26,@1
	ST   X+,R30
	ST   X,R31
	.ENDM

	.MACRO __PUTD1PMNS
	LDS  R26,@0
	LDS  R27,@0+1
	ADIW R26,@1
	CALL __PUTDP1
	.ENDM

	.MACRO __PUTB1RN
	MOVW R26,R@0
	SUBI R26,LOW(-@1)
	SBCI R27,HIGH(-@1)
	ST   X,R30
	.ENDM

	.MACRO __PUTW1RN
	MOVW R26,R@0
	SUBI R26,LOW(-@1)
	SBCI R27,HIGH(-@1)
	ST   X+,R30
	ST   X,R31
	.ENDM

	.MACRO __PUTD1RN
	MOVW R26,R@0
	SUBI R26,LOW(-@1)
	SBCI R27,HIGH(-@1)
	CALL __PUTDP1
	.ENDM

	.MACRO __PUTB1RNS
	MOVW R26,R@0
	ADIW R26,@1
	ST   X,R30
	.ENDM

	.MACRO __PUTW1RNS
	MOVW R26,R@0
	ADIW R26,@1
	ST   X+,R30
	ST   X,R31
	.ENDM

	.MACRO __PUTD1RNS
	MOVW R26,R@0
	ADIW R26,@1
	CALL __PUTDP1
	.ENDM

	.MACRO __PUTB1RON
	MOV  R26,R@0
	MOV  R27,R@1
	SUBI R26,LOW(-@2)
	SBCI R27,HIGH(-@2)
	ST   X,R30
	.ENDM

	.MACRO __PUTW1RON
	MOV  R26,R@0
	MOV  R27,R@1
	SUBI R26,LOW(-@2)
	SBCI R27,HIGH(-@2)
	ST   X+,R30
	ST   X,R31
	.ENDM

	.MACRO __PUTD1RON
	MOV  R26,R@0
	MOV  R27,R@1
	SUBI R26,LOW(-@2)
	SBCI R27,HIGH(-@2)
	CALL __PUTDP1
	.ENDM

	.MACRO __PUTB1RONS
	MOV  R26,R@0
	MOV  R27,R@1
	ADIW R26,@2
	ST   X,R30
	.ENDM

	.MACRO __PUTW1RONS
	MOV  R26,R@0
	MOV  R27,R@1
	ADIW R26,@2
	ST   X+,R30
	ST   X,R31
	.ENDM

	.MACRO __PUTD1RONS
	MOV  R26,R@0
	MOV  R27,R@1
	ADIW R26,@2
	CALL __PUTDP1
	.ENDM


	.MACRO __GETB1SX
	MOVW R30,R28
	SUBI R30,LOW(-@0)
	SBCI R31,HIGH(-@0)
	LD   R30,Z
	.ENDM

	.MACRO __GETB1HSX
	MOVW R30,R28
	SUBI R30,LOW(-@0)
	SBCI R31,HIGH(-@0)
	LD   R31,Z
	.ENDM

	.MACRO __GETW1SX
	MOVW R30,R28
	SUBI R30,LOW(-@0)
	SBCI R31,HIGH(-@0)
	LD   R0,Z+
	LD   R31,Z
	MOV  R30,R0
	.ENDM

	.MACRO __GETD1SX
	MOVW R30,R28
	SUBI R30,LOW(-@0)
	SBCI R31,HIGH(-@0)
	LD   R0,Z+
	LD   R1,Z+
	LD   R22,Z+
	LD   R23,Z
	MOVW R30,R0
	.ENDM

	.MACRO __GETB2SX
	MOVW R26,R28
	SUBI R26,LOW(-@0)
	SBCI R27,HIGH(-@0)
	LD   R26,X
	.ENDM

	.MACRO __GETW2SX
	MOVW R26,R28
	SUBI R26,LOW(-@0)
	SBCI R27,HIGH(-@0)
	LD   R0,X+
	LD   R27,X
	MOV  R26,R0
	.ENDM

	.MACRO __GETD2SX
	MOVW R26,R28
	SUBI R26,LOW(-@0)
	SBCI R27,HIGH(-@0)
	LD   R0,X+
	LD   R1,X+
	LD   R24,X+
	LD   R25,X
	MOVW R26,R0
	.ENDM

	.MACRO __GETBRSX
	MOVW R30,R28
	SUBI R30,LOW(-@1)
	SBCI R31,HIGH(-@1)
	LD   R@0,Z
	.ENDM

	.MACRO __GETWRSX
	MOVW R30,R28
	SUBI R30,LOW(-@2)
	SBCI R31,HIGH(-@2)
	LD   R@0,Z+
	LD   R@1,Z
	.ENDM

	.MACRO __GETBRSX2
	MOVW R26,R28
	SUBI R26,LOW(-@1)
	SBCI R27,HIGH(-@1)
	LD   R@0,X
	.ENDM

	.MACRO __GETWRSX2
	MOVW R26,R28
	SUBI R26,LOW(-@2)
	SBCI R27,HIGH(-@2)
	LD   R@0,X+
	LD   R@1,X
	.ENDM

	.MACRO __LSLW8SX
	MOVW R30,R28
	SUBI R30,LOW(-@0)
	SBCI R31,HIGH(-@0)
	LD   R31,Z
	CLR  R30
	.ENDM

	.MACRO __PUTB1SX
	MOVW R26,R28
	SUBI R26,LOW(-@0)
	SBCI R27,HIGH(-@0)
	ST   X,R30
	.ENDM

	.MACRO __PUTW1SX
	MOVW R26,R28
	SUBI R26,LOW(-@0)
	SBCI R27,HIGH(-@0)
	ST   X+,R30
	ST   X,R31
	.ENDM

	.MACRO __PUTD1SX
	MOVW R26,R28
	SUBI R26,LOW(-@0)
	SBCI R27,HIGH(-@0)
	ST   X+,R30
	ST   X+,R31
	ST   X+,R22
	ST   X,R23
	.ENDM

	.MACRO __CLRW1SX
	MOVW R26,R28
	SUBI R26,LOW(-@0)
	SBCI R27,HIGH(-@0)
	ST   X+,R30
	ST   X,R30
	.ENDM

	.MACRO __CLRD1SX
	MOVW R26,R28
	SUBI R26,LOW(-@0)
	SBCI R27,HIGH(-@0)
	ST   X+,R30
	ST   X+,R30
	ST   X+,R30
	ST   X,R30
	.ENDM

	.MACRO __PUTB2SX
	MOVW R30,R28
	SUBI R30,LOW(-@0)
	SBCI R31,HIGH(-@0)
	ST   Z,R26
	.ENDM

	.MACRO __PUTW2SX
	MOVW R30,R28
	SUBI R30,LOW(-@0)
	SBCI R31,HIGH(-@0)
	ST   Z+,R26
	ST   Z,R27
	.ENDM

	.MACRO __PUTD2SX
	MOVW R30,R28
	SUBI R30,LOW(-@0)
	SBCI R31,HIGH(-@0)
	ST   Z+,R26
	ST   Z+,R27
	ST   Z+,R24
	ST   Z,R25
	.ENDM

	.MACRO __PUTBSRX
	MOVW R30,R28
	SUBI R30,LOW(-@1)
	SBCI R31,HIGH(-@1)
	ST   Z,R@0
	.ENDM

	.MACRO __PUTWSRX
	MOVW R30,R28
	SUBI R30,LOW(-@2)
	SBCI R31,HIGH(-@2)
	ST   Z+,R@0
	ST   Z,R@1
	.ENDM

	.MACRO __PUTB1SNX
	MOVW R26,R28
	SUBI R26,LOW(-@0)
	SBCI R27,HIGH(-@0)
	LD   R0,X+
	LD   R27,X
	MOV  R26,R0
	SUBI R26,LOW(-@1)
	SBCI R27,HIGH(-@1)
	ST   X,R30
	.ENDM

	.MACRO __PUTW1SNX
	MOVW R26,R28
	SUBI R26,LOW(-@0)
	SBCI R27,HIGH(-@0)
	LD   R0,X+
	LD   R27,X
	MOV  R26,R0
	SUBI R26,LOW(-@1)
	SBCI R27,HIGH(-@1)
	ST   X+,R30
	ST   X,R31
	.ENDM

	.MACRO __PUTD1SNX
	MOVW R26,R28
	SUBI R26,LOW(-@0)
	SBCI R27,HIGH(-@0)
	LD   R0,X+
	LD   R27,X
	MOV  R26,R0
	SUBI R26,LOW(-@1)
	SBCI R27,HIGH(-@1)
	ST   X+,R30
	ST   X+,R31
	ST   X+,R22
	ST   X,R23
	.ENDM

	.MACRO __MULBRR
	MULS R@0,R@1
	MOVW R30,R0
	.ENDM

	.MACRO __MULBRRU
	MUL  R@0,R@1
	MOVW R30,R0
	.ENDM

	.MACRO __MULBRR0
	MULS R@0,R@1
	.ENDM

	.MACRO __MULBRRU0
	MUL  R@0,R@1
	.ENDM

	.MACRO __MULBNWRU
	LDI  R26,@2
	MUL  R26,R@0
	MOVW R30,R0
	MUL  R26,R@1
	ADD  R31,R0
	.ENDM

;NAME DEFINITIONS FOR GLOBAL VARIABLES ALLOCATED TO REGISTERS
	.DEF __lcd_x=R5
	.DEF __lcd_y=R4
	.DEF __lcd_maxx=R7

	.CSEG
	.ORG 0x00

;START OF CODE MARKER
__START_OF_CODE:

;INTERRUPT VECTORS
	JMP  __RESET
	JMP  0x00
	JMP  0x00
	JMP  0x00
	JMP  0x00
	JMP  0x00
	JMP  0x00
	JMP  0x00
	JMP  0x00
	JMP  _timer0_ovf_isr
	JMP  0x00
	JMP  0x00
	JMP  0x00
	JMP  0x00
	JMP  _adc_isr
	JMP  0x00
	JMP  0x00
	JMP  0x00
	JMP  0x00
	JMP  0x00
	JMP  0x00

_tbl10_G100:
	.DB  0x10,0x27,0xE8,0x3,0x64,0x0,0xA,0x0
	.DB  0x1,0x0
_tbl16_G100:
	.DB  0x0,0x10,0x0,0x1,0x10,0x0,0x1,0x0

_0x4:
	.DB  LOW(_0x3),HIGH(_0x3)
_0x0:
	.DB  0x20,0x20,0x20,0x20,0x20,0x20,0x20,0x20
	.DB  0x20,0x20,0x20,0x20,0x20,0x20,0x20,0x20
	.DB  0x0,0x51,0x5F,0x32,0x20,0x2D,0x3E,0x20
	.DB  0x35,0x25,0x20,0x63,0x68,0x61,0x6E,0x67
	.DB  0x65,0x0,0x41,0x44,0x43,0x20,0x25,0x64
	.DB  0x3A,0x20,0x25,0x64,0x20,0x6D,0x56,0x0
_0x20000:
	.DB  0x51,0x75,0x65,0x73,0x74,0x69,0x6F,0x6E
	.DB  0x5F,0x30,0x31,0x0,0x41,0x44,0x43,0x20
	.DB  0x25,0x64,0x3A,0x20,0x25,0x64,0x20,0x6D
	.DB  0x56,0x0,0x53,0x65,0x65,0x20,0x74,0x68
	.DB  0x65,0x20,0x50,0x75,0x6C,0x73,0x65,0x20
	.DB  0x20,0x20,0x66,0x6F,0x72,0x20,0x31,0x35
	.DB  0x20,0x73,0x65,0x63,0x0
_0x2020003:
	.DB  0x80,0xC0
_0x20A0060:
	.DB  0x1
_0x20A0000:
	.DB  0x2D,0x4E,0x41,0x4E,0x0,0x49,0x4E,0x46
	.DB  0x0

__GLOBAL_INI_TBL:
	.DW  0x11
	.DW  _0x3
	.DW  _0x0*2

	.DW  0x02
	.DW  _space
	.DW  _0x4*2

	.DW  0x11
	.DW  _0x9
	.DW  _0x0*2+17

	.DW  0x0C
	.DW  _0x20006
	.DW  _0x20000*2

	.DW  0x1B
	.DW  _0x2000A
	.DW  _0x20000*2+26

	.DW  0x02
	.DW  __base_y_G101
	.DW  _0x2020003*2

	.DW  0x01
	.DW  __seed_G105
	.DW  _0x20A0060*2

_0xFFFFFFFF:
	.DW  0

#define __GLOBAL_INI_TBL_PRESENT 1

__RESET:
	CLI
	CLR  R30
	OUT  EECR,R30

;INTERRUPT VECTORS ARE PLACED
;AT THE START OF FLASH
	LDI  R31,1
	OUT  GICR,R31
	OUT  GICR,R30
	OUT  MCUCR,R30

;CLEAR R2-R14
	LDI  R24,(14-2)+1
	LDI  R26,2
	CLR  R27
__CLEAR_REG:
	ST   X+,R30
	DEC  R24
	BRNE __CLEAR_REG

;CLEAR SRAM
	LDI  R24,LOW(__CLEAR_SRAM_SIZE)
	LDI  R25,HIGH(__CLEAR_SRAM_SIZE)
	LDI  R26,__SRAM_START
__CLEAR_SRAM:
	ST   X+,R30
	SBIW R24,1
	BRNE __CLEAR_SRAM

;GLOBAL VARIABLES INITIALIZATION
	LDI  R30,LOW(__GLOBAL_INI_TBL*2)
	LDI  R31,HIGH(__GLOBAL_INI_TBL*2)
__GLOBAL_INI_NEXT:
	LPM  R24,Z+
	LPM  R25,Z+
	SBIW R24,0
	BREQ __GLOBAL_INI_END
	LPM  R26,Z+
	LPM  R27,Z+
	LPM  R0,Z+
	LPM  R1,Z+
	MOVW R22,R30
	MOVW R30,R0
__GLOBAL_INI_LOOP:
	LPM  R0,Z+
	ST   X+,R0
	SBIW R24,1
	BRNE __GLOBAL_INI_LOOP
	MOVW R30,R22
	RJMP __GLOBAL_INI_NEXT
__GLOBAL_INI_END:

;HARDWARE STACK POINTER INITIALIZATION
	LDI  R30,LOW(__SRAM_END-__HEAP_SIZE)
	OUT  SPL,R30
	LDI  R30,HIGH(__SRAM_END-__HEAP_SIZE)
	OUT  SPH,R30

;DATA STACK POINTER INITIALIZATION
	LDI  R28,LOW(__SRAM_START+__DSTACK_SIZE)
	LDI  R29,HIGH(__SRAM_START+__DSTACK_SIZE)

	JMP  _main

	.ESEG
	.ORG 0

	.DSEG
	.ORG 0x160

	.CSEG
;/*******************************************************
;This program was created by the
;CodeWizardAVR V3.12 Advanced
;Automatic Program Generator
;© Copyright 1998-2014 Pavel Haiduc, HP InfoTech s.r.l.
;http://www.hpinfotech.com
;
;Project :
;Version :
;Date    : 11/5/2020
;Author  : Arman Riasi
;Company :
;Comments:
;
;
;Chip type               : ATmega16
;Program type            : Application
;AVR Core Clock frequency: 8.000000 MHz
;Memory model            : Small
;External RAM size       : 0
;Data Stack size         : 256
;*******************************************************/
;
;#include <define.h>
	#ifndef __SLEEP_DEFINED__
	#define __SLEEP_DEFINED__
	.EQU __se_bit=0x40
	.EQU __sm_mask=0xB0
	.EQU __sm_powerdown=0x20
	.EQU __sm_powersave=0x30
	.EQU __sm_standby=0xA0
	.EQU __sm_ext_standby=0xB0
	.EQU __sm_adc_noise_red=0x10
	.SET power_ctrl_reg=mcucr
	#endif
;
;
;unsigned int adc_data[LAST_ADC_INPUT-FIRST_ADC_INPUT+1];
;unsigned int last_result[8] = {0};
;
;char* space = "                ";

	.DSEG
_0x3:
	.BYTE 0x11
;int i = 0;
;char resultInString[18];
;int result = 0;
;int result2 = 0;
;
;float temp1 = 0;
;float temp2 = 0;
;
;long int input = 0;
;float dutyCycle = 0;
;float ocrNumber = 0;
;
;
;interrupt [ADC_INT] void adc_isr(void)
; 0000 002D {

	.CSEG
_adc_isr:
; .FSTART _adc_isr
	CALL SUBOPT_0x0
; 0000 002E     float FivePercent01 = 0;
; 0000 002F     float FivePercent02 = 0;
; 0000 0030     result = 0;
	SBIW R28,8
	LDI  R30,LOW(0)
	ST   Y,R30
	STD  Y+1,R30
	STD  Y+2,R30
	STD  Y+3,R30
	STD  Y+4,R30
	STD  Y+5,R30
	STD  Y+6,R30
	STD  Y+7,R30
;	FivePercent01 -> Y+4
;	FivePercent02 -> Y+0
	CALL SUBOPT_0x1
; 0000 0031     temp1 = 0;
; 0000 0032     temp2 = 0;
; 0000 0033     result2 = 0;
	LDI  R30,LOW(0)
	STS  _result2,R30
	STS  _result2+1,R30
; 0000 0034 
; 0000 0035     static unsigned char input_index=0;
; 0000 0036     // Read the AD conversion result
; 0000 0037     adc_data[input_index]=ADCW;
	LDS  R30,_input_index_S0000000000
	LDI  R26,LOW(_adc_data)
	LDI  R27,HIGH(_adc_data)
	LDI  R31,0
	LSL  R30
	ROL  R31
	ADD  R26,R30
	ADC  R27,R31
	IN   R30,0x4
	IN   R31,0x4+1
	ST   X+,R30
	ST   X,R31
; 0000 0038     // Select next ADC input
; 0000 0039     if (++input_index > (LAST_ADC_INPUT-FIRST_ADC_INPUT))
	LDS  R26,_input_index_S0000000000
	SUBI R26,-LOW(1)
	STS  _input_index_S0000000000,R26
	CPI  R26,LOW(0x8)
	BRLO _0x5
; 0000 003A        input_index=0;
	LDI  R30,LOW(0)
	STS  _input_index_S0000000000,R30
; 0000 003B     ADMUX=(FIRST_ADC_INPUT | ADC_VREF_TYPE)+input_index;
_0x5:
	LDS  R30,_input_index_S0000000000
	SUBI R30,-LOW(64)
	OUT  0x7,R30
; 0000 003C     // Delay needed for the stabilization of the ADC input voltage
; 0000 003D     delay_us(10);
	__DELAY_USB 27
; 0000 003E 
; 0000 003F 
; 0000 0040     i++;
	CALL SUBOPT_0x2
; 0000 0041 
; 0000 0042         result = adc_data[i];
	CALL SUBOPT_0x3
	LDI  R26,LOW(_adc_data)
	LDI  R27,HIGH(_adc_data)
	CALL SUBOPT_0x4
	CALL SUBOPT_0x5
; 0000 0043         result2 = result;
	STS  _result2,R30
	STS  _result2+1,R31
; 0000 0044         temp2 = result * 5;
	CALL SUBOPT_0x6
	CALL SUBOPT_0x7
; 0000 0045         FivePercent01 = ((temp2)/100) + result;
	CALL SUBOPT_0x8
	MOVW R26,R30
	MOVW R24,R22
	CALL SUBOPT_0x6
	CALL __CWD1
	CALL __CDF1
	CALL __ADDF12
	__PUTD1S 4
; 0000 0046         FivePercent02 = result -((temp2)/100);
	LDS  R26,_temp2
	LDS  R27,_temp2+1
	LDS  R24,_temp2+2
	LDS  R25,_temp2+3
	CALL SUBOPT_0x8
	LDS  R26,_result
	LDS  R27,_result+1
	CALL __CWD2
	CALL __CDF2
	CALL __SWAPD12
	CALL __SUBF12
	CALL __PUTD1S0
; 0000 0047         if (FivePercent01 < last_result[i] || FivePercent02 > last_result[i]){
	CALL SUBOPT_0x9
	__GETD2S 4
	CALL SUBOPT_0xA
	BRLO _0x7
	CALL SUBOPT_0x9
	CALL __GETD2S0
	CALL SUBOPT_0xA
	BREQ PC+3
	BRCS PC+2
	RJMP _0x7
	RJMP _0x6
_0x7:
; 0000 0048             lcd_clear();
	CALL SUBOPT_0xB
; 0000 0049             lcd_gotoxy(0,0);
; 0000 004A             lcd_puts("Q_2 -> 5% change");
	__POINTW2MN _0x9,0
	CALL _lcd_puts
; 0000 004B             temp2 = result * 5;
	CALL SUBOPT_0x6
	CALL SUBOPT_0x7
; 0000 004C             temp1 = temp2 / 1023;
	CALL SUBOPT_0xC
	CALL SUBOPT_0xD
; 0000 004D             temp1 = temp1 * 1000;
	CALL SUBOPT_0xE
; 0000 004E             result = floor(temp1); //milliVolt
	CALL SUBOPT_0xF
; 0000 004F             sprintf(resultInString,"ADC %d: %d mV",i,result);
	__POINTW1FN _0x0,34
	CALL SUBOPT_0x10
; 0000 0050             lcd_gotoxy(0,1);
; 0000 0051             lcd_puts(space);
; 0000 0052             lcd_gotoxy(0,1);
; 0000 0053             lcd_puts(resultInString);
; 0000 0054             delay_ms(1000);
; 0000 0055             last_result[i] = result2;
	CALL SUBOPT_0x3
	LDI  R26,LOW(_last_result)
	LDI  R27,HIGH(_last_result)
	LSL  R30
	ROL  R31
	ADD  R30,R26
	ADC  R31,R27
	LDS  R26,_result2
	LDS  R27,_result2+1
	STD  Z+0,R26
	STD  Z+1,R27
; 0000 0056         }
; 0000 0057 
; 0000 0058     if (i == 7){
_0x6:
	LDS  R26,_i
	LDS  R27,_i+1
	SBIW R26,7
	BRNE _0xA
; 0000 0059      i = -1;
	CALL SUBOPT_0x11
; 0000 005A      }
; 0000 005B 
; 0000 005C 
; 0000 005D 
; 0000 005E 
; 0000 005F 
; 0000 0060     // Start the AD conversion
; 0000 0061     ADCSRA|=(1<<ADSC);
_0xA:
	SBI  0x6,6
; 0000 0062 }
	ADIW R28,8
	RJMP _0xC
; .FEND

	.DSEG
_0x9:
	.BYTE 0x11
;
;// Timer 0 overflow interrupt service routine
;interrupt [TIM0_OVF] void timer0_ovf_isr(void)
; 0000 0066 {

	.CSEG
_timer0_ovf_isr:
; .FSTART _timer0_ovf_isr
	CALL SUBOPT_0x0
; 0000 0067 
; 0000 0068     input = read_adc(0);
	LDI  R26,LOW(0)
	RCALL _read_adc
	CLR  R22
	CLR  R23
	STS  _input,R30
	STS  _input+1,R31
	STS  _input+2,R22
	STS  _input+3,R23
; 0000 0069     dutyCycle = input*90;
	__GETD2N 0x5A
	CALL __MULD12
	LDI  R26,LOW(_dutyCycle)
	LDI  R27,HIGH(_dutyCycle)
	CALL __CDF1
	CALL __PUTDP1
; 0000 006A     dutyCycle = (dutyCycle/1023) + 5;
	LDS  R26,_dutyCycle
	LDS  R27,_dutyCycle+1
	LDS  R24,_dutyCycle+2
	LDS  R25,_dutyCycle+3
	CALL SUBOPT_0xC
	__GETD2N 0x40A00000
	CALL __ADDF12
	STS  _dutyCycle,R30
	STS  _dutyCycle+1,R31
	STS  _dutyCycle+2,R22
	STS  _dutyCycle+3,R23
; 0000 006B     ocrNumber = (2.55 * dutyCycle) + 0.5;
	__GETD2N 0x40233333
	CALL __MULF12
	__GETD2N 0x3F000000
	CALL __ADDF12
	STS  _ocrNumber,R30
	STS  _ocrNumber+1,R31
	STS  _ocrNumber+2,R22
	STS  _ocrNumber+3,R23
; 0000 006C 
; 0000 006D 
; 0000 006E     OCR0 = floor(ocrNumber);
	LDS  R26,_ocrNumber
	LDS  R27,_ocrNumber+1
	LDS  R24,_ocrNumber+2
	LDS  R25,_ocrNumber+3
	CALL _floor
	CALL __CFD1U
	OUT  0x3C,R30
; 0000 006F 
; 0000 0070 }
_0xC:
	LD   R30,Y+
	OUT  SREG,R30
	LD   R31,Y+
	LD   R30,Y+
	LD   R27,Y+
	LD   R26,Y+
	LD   R25,Y+
	LD   R24,Y+
	LD   R23,Y+
	LD   R22,Y+
	LD   R15,Y+
	LD   R1,Y+
	LD   R0,Y+
	RETI
; .FEND
;
;
;
;void main(void)
; 0000 0075 {
_main:
; .FSTART _main
; 0000 0076     ioInit();
	RCALL _ioInit
; 0000 0077     lcd_init(16);
	LDI  R26,LOW(16)
	CALL _lcd_init
; 0000 0078 
; 0000 0079 
; 0000 007A     //question_01();
; 0000 007B     //question_02();
; 0000 007C     //question_03();
; 0000 007D     question_04();
	RCALL _question_04
; 0000 007E }
_0xB:
	RJMP _0xB
; .FEND
;#include <define.h>
	#ifndef __SLEEP_DEFINED__
	#define __SLEEP_DEFINED__
	.EQU __se_bit=0x40
	.EQU __sm_mask=0xB0
	.EQU __sm_powerdown=0x20
	.EQU __sm_powersave=0x30
	.EQU __sm_standby=0xA0
	.EQU __sm_ext_standby=0xB0
	.EQU __sm_adc_noise_red=0x10
	.SET power_ctrl_reg=mcucr
	#endif
;
;
;void ioInit(){
; 0001 0004 void ioInit(){

	.CSEG
_ioInit:
; .FSTART _ioInit
; 0001 0005 
; 0001 0006     // Input/Output Ports initialization
; 0001 0007     // Port A initialization
; 0001 0008     // Function: Bit7=In Bit6=In Bit5=In Bit4=In Bit3=In Bit2=In Bit1=In Bit0=In
; 0001 0009     DDRA=(0<<DDA7) | (0<<DDA6) | (0<<DDA5) | (0<<DDA4) | (0<<DDA3) | (0<<DDA2) | (0<<DDA1) | (0<<DDA0);
	LDI  R30,LOW(0)
	OUT  0x1A,R30
; 0001 000A     // State: Bit7=T Bit6=T Bit5=T Bit4=T Bit3=T Bit2=T Bit1=T Bit0=T
; 0001 000B     PORTA=(0<<PORTA7) | (0<<PORTA6) | (0<<PORTA5) | (0<<PORTA4) | (0<<PORTA3) | (0<<PORTA2) | (0<<PORTA1) | (0<<PORTA0);
	OUT  0x1B,R30
; 0001 000C 
; 0001 000D     // Port B initialization
; 0001 000E     // Function: Bit7=In Bit6=In Bit5=In Bit4=In Bit3=Out Bit2=In Bit1=In Bit0=In
; 0001 000F     DDRB=(0<<DDB7) | (0<<DDB6) | (0<<DDB5) | (0<<DDB4) | (1<<DDB3) | (0<<DDB2) | (0<<DDB1) | (0<<DDB0);
	LDI  R30,LOW(8)
	OUT  0x17,R30
; 0001 0010     // State: Bit7=T Bit6=T Bit5=T Bit4=T Bit3=0 Bit2=T Bit1=T Bit0=T
; 0001 0011     PORTB=(0<<PORTB7) | (0<<PORTB6) | (0<<PORTB5) | (0<<PORTB4) | (0<<PORTB3) | (0<<PORTB2) | (0<<PORTB1) | (0<<PORTB0);
	LDI  R30,LOW(0)
	OUT  0x18,R30
; 0001 0012 
; 0001 0013     // Port C initialization
; 0001 0014     // Function: Bit7=Out Bit6=Out Bit5=Out Bit4=Out Bit3=Out Bit2=Out Bit1=Out Bit0=Out
; 0001 0015     DDRC=(1<<DDC7) | (1<<DDC6) | (1<<DDC5) | (1<<DDC4) | (1<<DDC3) | (1<<DDC2) | (1<<DDC1) | (1<<DDC0);
	LDI  R30,LOW(255)
	OUT  0x14,R30
; 0001 0016     // State: Bit7=0 Bit6=0 Bit5=0 Bit4=0 Bit3=0 Bit2=0 Bit1=0 Bit0=0
; 0001 0017     PORTC=(0<<PORTC7) | (0<<PORTC6) | (0<<PORTC5) | (0<<PORTC4) | (0<<PORTC3) | (0<<PORTC2) | (0<<PORTC1) | (0<<PORTC0);
	LDI  R30,LOW(0)
	OUT  0x15,R30
; 0001 0018 
; 0001 0019     // Port D initialization
; 0001 001A     // Function: Bit7=In Bit6=In Bit5=In Bit4=In Bit3=In Bit2=In Bit1=In Bit0=In
; 0001 001B     DDRD=(0<<DDD7) | (0<<DDD6) | (0<<DDD5) | (0<<DDD4) | (0<<DDD3) | (0<<DDD2) | (0<<DDD1) | (0<<DDD0);
	OUT  0x11,R30
; 0001 001C     // State: Bit7=T Bit6=T Bit5=T Bit4=T Bit3=T Bit2=T Bit1=T Bit0=T
; 0001 001D     PORTD=(0<<PORTD7) | (0<<PORTD6) | (0<<PORTD5) | (0<<PORTD4) | (0<<PORTD3) | (0<<PORTD2) | (0<<PORTD1) | (0<<PORTD0);
	OUT  0x12,R30
; 0001 001E 
; 0001 001F }
	RET
; .FEND
;
;void timerInit_Q3(){
; 0001 0021 void timerInit_Q3(){
_timerInit_Q3:
; .FSTART _timerInit_Q3
; 0001 0022 
; 0001 0023     // Timer/Counter 0 initialization
; 0001 0024     // Clock source: System Clock
; 0001 0025     // Clock value: 7.813 kHz
; 0001 0026     // Mode: Phase correct PWM top=0xFF
; 0001 0027     // OC0 output: Non-Inverted PWM
; 0001 0028     // Timer Period: 65.28 ms
; 0001 0029     // Output Pulse(s):
; 0001 002A     // OC0 Period: 65.28 ms Width: 32.768 ms
; 0001 002B     TCCR0=(1<<WGM00) | (1<<COM01) | (0<<COM00) | (0<<WGM01) | (1<<CS02) | (0<<CS01) | (1<<CS00);
	LDI  R30,LOW(101)
	OUT  0x33,R30
; 0001 002C     TCNT0=0x00;
	LDI  R30,LOW(0)
	OUT  0x32,R30
; 0001 002D     OCR0=0x80;
	LDI  R30,LOW(128)
	CALL SUBOPT_0x12
; 0001 002E 
; 0001 002F     // Timer/Counter 1 initialization
; 0001 0030     // Clock source: System Clock
; 0001 0031     // Clock value: Timer1 Stopped
; 0001 0032     // Mode: Normal top=0xFFFF
; 0001 0033     // OC1A output: Disconnected
; 0001 0034     // OC1B output: Disconnected
; 0001 0035     // Noise Canceler: Off
; 0001 0036     // Input Capture on Falling Edge
; 0001 0037     // Timer1 Overflow Interrupt: Off
; 0001 0038     // Input Capture Interrupt: Off
; 0001 0039     // Compare A Match Interrupt: Off
; 0001 003A     // Compare B Match Interrupt: Off
; 0001 003B     TCCR1A=(0<<COM1A1) | (0<<COM1A0) | (0<<COM1B1) | (0<<COM1B0) | (0<<WGM11) | (0<<WGM10);
; 0001 003C     TCCR1B=(0<<ICNC1) | (0<<ICES1) | (0<<WGM13) | (0<<WGM12) | (0<<CS12) | (0<<CS11) | (0<<CS10);
; 0001 003D     TCNT1H=0x00;
; 0001 003E     TCNT1L=0x00;
; 0001 003F     ICR1H=0x00;
; 0001 0040     ICR1L=0x00;
; 0001 0041     OCR1AH=0x00;
; 0001 0042     OCR1AL=0x00;
; 0001 0043     OCR1BH=0x00;
; 0001 0044     OCR1BL=0x00;
; 0001 0045 
; 0001 0046     // Timer/Counter 2 initialization
; 0001 0047     // Clock source: System Clock
; 0001 0048     // Clock value: Timer2 Stopped
; 0001 0049     // Mode: Normal top=0xFF
; 0001 004A     // OC2 output: Disconnected
; 0001 004B     ASSR=0<<AS2;
; 0001 004C     TCCR2=(0<<PWM2) | (0<<COM21) | (0<<COM20) | (0<<CTC2) | (0<<CS22) | (0<<CS21) | (0<<CS20);
; 0001 004D     TCNT2=0x00;
; 0001 004E     OCR2=0x00;
; 0001 004F 
; 0001 0050     // Timer(s)/Counter(s) Interrupt(s) initialization
; 0001 0051     TIMSK=(0<<OCIE2) | (0<<TOIE2) | (0<<TICIE1) | (0<<OCIE1A) | (0<<OCIE1B) | (0<<TOIE1) | (0<<OCIE0) | (1<<TOIE0);
	LDI  R30,LOW(1)
	RJMP _0x20C0004
; 0001 0052 
; 0001 0053 }
; .FEND
;
;void timerInit_Q1_Q2(){
; 0001 0055 void timerInit_Q1_Q2(){
_timerInit_Q1_Q2:
; .FSTART _timerInit_Q1_Q2
; 0001 0056 
; 0001 0057     // Timer/Counter 0 initialization
; 0001 0058     // Clock source: System Clock
; 0001 0059     // Clock value: Timer 0 Stopped
; 0001 005A     // Mode: Normal top=0xFF
; 0001 005B     // OC0 output: Disconnected
; 0001 005C     TCCR0=(0<<WGM00) | (0<<COM01) | (0<<COM00) | (0<<WGM01) | (0<<CS02) | (0<<CS01) | (0<<CS00);
	LDI  R30,LOW(0)
	OUT  0x33,R30
; 0001 005D     TCNT0=0x00;
	OUT  0x32,R30
; 0001 005E     OCR0=0x00;
	CALL SUBOPT_0x12
; 0001 005F 
; 0001 0060     // Timer/Counter 1 initialization
; 0001 0061     // Clock source: System Clock
; 0001 0062     // Clock value: Timer1 Stopped
; 0001 0063     // Mode: Normal top=0xFFFF
; 0001 0064     // OC1A output: Disconnected
; 0001 0065     // OC1B output: Disconnected
; 0001 0066     // Noise Canceler: Off
; 0001 0067     // Input Capture on Falling Edge
; 0001 0068     // Timer1 Overflow Interrupt: Off
; 0001 0069     // Input Capture Interrupt: Off
; 0001 006A     // Compare A Match Interrupt: Off
; 0001 006B     // Compare B Match Interrupt: Off
; 0001 006C     TCCR1A=(0<<COM1A1) | (0<<COM1A0) | (0<<COM1B1) | (0<<COM1B0) | (0<<WGM11) | (0<<WGM10);
; 0001 006D     TCCR1B=(0<<ICNC1) | (0<<ICES1) | (0<<WGM13) | (0<<WGM12) | (0<<CS12) | (0<<CS11) | (0<<CS10);
; 0001 006E     TCNT1H=0x00;
; 0001 006F     TCNT1L=0x00;
; 0001 0070     ICR1H=0x00;
; 0001 0071     ICR1L=0x00;
; 0001 0072     OCR1AH=0x00;
; 0001 0073     OCR1AL=0x00;
; 0001 0074     OCR1BH=0x00;
; 0001 0075     OCR1BL=0x00;
; 0001 0076 
; 0001 0077     // Timer/Counter 2 initialization
; 0001 0078     // Clock source: System Clock
; 0001 0079     // Clock value: Timer2 Stopped
; 0001 007A     // Mode: Normal top=0xFF
; 0001 007B     // OC2 output: Disconnected
; 0001 007C     ASSR=0<<AS2;
; 0001 007D     TCCR2=(0<<PWM2) | (0<<COM21) | (0<<COM20) | (0<<CTC2) | (0<<CS22) | (0<<CS21) | (0<<CS20);
; 0001 007E     TCNT2=0x00;
; 0001 007F     OCR2=0x00;
; 0001 0080 
; 0001 0081     // Timer(s)/Counter(s) Interrupt(s) initialization
; 0001 0082     TIMSK=(0<<OCIE2) | (0<<TOIE2) | (0<<TICIE1) | (0<<OCIE1A) | (0<<OCIE1B) | (0<<TOIE1) | (0<<OCIE0) | (0<<TOIE0);
	LDI  R30,LOW(0)
_0x20C0004:
	OUT  0x39,R30
; 0001 0083 
; 0001 0084 
; 0001 0085 }
	RET
; .FEND
;
;void interruptInit(){
; 0001 0087 void interruptInit(){
_interruptInit:
; .FSTART _interruptInit
; 0001 0088     // External Interrupt(s) initialization
; 0001 0089     // INT0: Off
; 0001 008A     // INT1: Off
; 0001 008B     // INT2: Off
; 0001 008C     MCUCR=(0<<ISC11) | (0<<ISC10) | (0<<ISC01) | (0<<ISC00);
	LDI  R30,LOW(0)
	OUT  0x35,R30
; 0001 008D     MCUCSR=(0<<ISC2);
	OUT  0x34,R30
; 0001 008E 
; 0001 008F     // USART initialization
; 0001 0090     // USART disabled
; 0001 0091     UCSRB=(0<<RXCIE) | (0<<TXCIE) | (0<<UDRIE) | (0<<RXEN) | (0<<TXEN) | (0<<UCSZ2) | (0<<RXB8) | (0<<TXB8);
	OUT  0xA,R30
; 0001 0092 
; 0001 0093 }
	RET
; .FEND
;
;void ADCinit_Q1_Q3(){
; 0001 0095 void ADCinit_Q1_Q3(){
_ADCinit_Q1_Q3:
; .FSTART _ADCinit_Q1_Q3
; 0001 0096     // Analog Comparator initialization
; 0001 0097     // Analog Comparator: Off
; 0001 0098     // The Analog Comparator's positive input is
; 0001 0099     // connected to the AIN0 pin
; 0001 009A     // The Analog Comparator's negative input is
; 0001 009B     // connected to the AIN1 pin
; 0001 009C     ACSR=(1<<ACD) | (0<<ACBG) | (0<<ACO) | (0<<ACI) | (0<<ACIE) | (0<<ACIC) | (0<<ACIS1) | (0<<ACIS0);
	LDI  R30,LOW(128)
	OUT  0x8,R30
; 0001 009D 
; 0001 009E     // ADC initialization
; 0001 009F     // ADC Clock frequency: 1000.000 kHz
; 0001 00A0     // ADC Voltage Reference: AVCC pin
; 0001 00A1     // ADC Auto Trigger Source: Free Running
; 0001 00A2     ADMUX=ADC_VREF_TYPE;
	LDI  R30,LOW(64)
	OUT  0x7,R30
; 0001 00A3     ADCSRA=(1<<ADEN) | (0<<ADSC) | (1<<ADATE) | (0<<ADIF) | (0<<ADIE) | (0<<ADPS2) | (1<<ADPS1) | (1<<ADPS0);
	LDI  R30,LOW(163)
	CALL SUBOPT_0x13
; 0001 00A4     SFIOR=(0<<ADTS2) | (0<<ADTS1) | (0<<ADTS0);
; 0001 00A5 
; 0001 00A6     // SPI initialization
; 0001 00A7     // SPI disabled
; 0001 00A8     SPCR=(0<<SPIE) | (0<<SPE) | (0<<DORD) | (0<<MSTR) | (0<<CPOL) | (0<<CPHA) | (0<<SPR1) | (0<<SPR0);
; 0001 00A9 
; 0001 00AA     // TWI initialization
; 0001 00AB     // TWI disabled
; 0001 00AC     TWCR=(0<<TWEA) | (0<<TWSTA) | (0<<TWSTO) | (0<<TWEN) | (0<<TWIE);
; 0001 00AD }
	RET
; .FEND
;
;void ADCinit_Q2(){
; 0001 00AF void ADCinit_Q2(){
_ADCinit_Q2:
; .FSTART _ADCinit_Q2
; 0001 00B0 
; 0001 00B1     // Analog Comparator initialization
; 0001 00B2     // Analog Comparator: Off
; 0001 00B3     // The Analog Comparator's positive input is
; 0001 00B4     // connected to the AIN0 pin
; 0001 00B5     // The Analog Comparator's negative input is
; 0001 00B6     // connected to the AIN1 pin
; 0001 00B7     ACSR=(1<<ACD) | (0<<ACBG) | (0<<ACO) | (0<<ACI) | (0<<ACIE) | (0<<ACIC) | (0<<ACIS1) | (0<<ACIS0);
	LDI  R30,LOW(128)
	OUT  0x8,R30
; 0001 00B8 
; 0001 00B9     // ADC initialization
; 0001 00BA     // ADC Clock frequency: 1000.000 kHz
; 0001 00BB     // ADC Voltage Reference: AVCC pin
; 0001 00BC     // ADC Auto Trigger Source: Free Running
; 0001 00BD     ADMUX=FIRST_ADC_INPUT | ADC_VREF_TYPE;
	LDI  R30,LOW(64)
	OUT  0x7,R30
; 0001 00BE     ADCSRA=(1<<ADEN) | (1<<ADSC) | (1<<ADATE) | (0<<ADIF) | (1<<ADIE) | (0<<ADPS2) | (1<<ADPS1) | (1<<ADPS0);
	LDI  R30,LOW(235)
	CALL SUBOPT_0x13
; 0001 00BF     SFIOR=(0<<ADTS2) | (0<<ADTS1) | (0<<ADTS0);
; 0001 00C0 
; 0001 00C1     // SPI initialization
; 0001 00C2     // SPI disabled
; 0001 00C3     SPCR=(0<<SPIE) | (0<<SPE) | (0<<DORD) | (0<<MSTR) | (0<<CPOL) | (0<<CPHA) | (0<<SPR1) | (0<<SPR0);
; 0001 00C4 
; 0001 00C5     // TWI initialization
; 0001 00C6     // TWI disabled
; 0001 00C7     TWCR=(0<<TWEA) | (0<<TWSTA) | (0<<TWSTO) | (0<<TWEN) | (0<<TWIE);
; 0001 00C8 
; 0001 00C9     // Global enable interrupts
; 0001 00CA     #asm("sei")
	sei
; 0001 00CB 
; 0001 00CC 
; 0001 00CD }
	RET
; .FEND
;
;
;// Read the AD conversion result
;unsigned int read_adc(unsigned char adc_input)
; 0001 00D2 {
_read_adc:
; .FSTART _read_adc
; 0001 00D3     ADMUX=adc_input | ADC_VREF_TYPE;
	ST   -Y,R26
;	adc_input -> Y+0
	LD   R30,Y
	ORI  R30,0x40
	OUT  0x7,R30
; 0001 00D4     // Delay needed for the stabilization of the ADC input voltage
; 0001 00D5     delay_us(10);
	__DELAY_USB 27
; 0001 00D6     // Start the AD conversion
; 0001 00D7     ADCSRA|=(1<<ADSC);
	SBI  0x6,6
; 0001 00D8     // Wait for the AD conversion to complete
; 0001 00D9     while ((ADCSRA & (1<<ADIF))==0);
_0x20003:
	SBIS 0x6,4
	RJMP _0x20003
; 0001 00DA     ADCSRA|=(1<<ADIF);
	SBI  0x6,4
; 0001 00DB     return ADCW;
	IN   R30,0x4
	IN   R31,0x4+1
	JMP  _0x20C0002
; 0001 00DC }
; .FEND
;
;void question_01(){
; 0001 00DE void question_01(){
_question_01:
; .FSTART _question_01
; 0001 00DF     i = 0;
	LDI  R30,LOW(0)
	STS  _i,R30
	STS  _i+1,R30
; 0001 00E0     result = 0;
	CALL SUBOPT_0x1
; 0001 00E1     temp1 = 0;
; 0001 00E2     temp2 = 0;
; 0001 00E3 
; 0001 00E4     timerInit_Q1_Q2();
	RCALL _timerInit_Q1_Q2
; 0001 00E5     interruptInit();
	RCALL _interruptInit
; 0001 00E6     ADCinit_Q1_Q3();
	RCALL _ADCinit_Q1_Q3
; 0001 00E7 
; 0001 00E8     lcd_clear();
	CALL SUBOPT_0xB
; 0001 00E9     lcd_gotoxy(0,0);
; 0001 00EA     lcd_puts("Question_01");
	__POINTW2MN _0x20006,0
	CALL _lcd_puts
; 0001 00EB 
; 0001 00EC     for(i = 0; i < 8; i++){
	LDI  R30,LOW(0)
	STS  _i,R30
	STS  _i+1,R30
_0x20008:
	LDS  R26,_i
	LDS  R27,_i+1
	SBIW R26,8
	BRGE _0x20009
; 0001 00ED         result = read_adc(i);
	LDS  R26,_i
	RCALL _read_adc
	CALL SUBOPT_0x5
; 0001 00EE         temp2 = result * 5;
	CALL SUBOPT_0x7
; 0001 00EF         temp1 = temp2 / 1023;
	CALL SUBOPT_0xC
	CALL SUBOPT_0xD
; 0001 00F0         temp1 = temp1 * 1000;
	CALL SUBOPT_0xE
; 0001 00F1         result = floor(temp1); //milliVolt
	CALL SUBOPT_0xF
; 0001 00F2         sprintf(resultInString,"ADC %d: %d mV",i,result);
	__POINTW1FN _0x20000,12
	CALL SUBOPT_0x10
; 0001 00F3         lcd_gotoxy(0,1);
; 0001 00F4         lcd_puts(space);
; 0001 00F5         lcd_gotoxy(0,1);
; 0001 00F6         lcd_puts(resultInString);
; 0001 00F7         delay_ms(1000);
; 0001 00F8     }
	CALL SUBOPT_0x2
	RJMP _0x20008
_0x20009:
; 0001 00F9 }
	RET
; .FEND

	.DSEG
_0x20006:
	.BYTE 0xC
;
;void question_02(){
; 0001 00FB void question_02(){

	.CSEG
_question_02:
; .FSTART _question_02
; 0001 00FC 
; 0001 00FD 
; 0001 00FE     timerInit_Q1_Q2();
	RCALL _timerInit_Q1_Q2
; 0001 00FF     interruptInit();
	RCALL _interruptInit
; 0001 0100     ADCinit_Q2();
	RCALL _ADCinit_Q2
; 0001 0101        i = -1;
	CALL SUBOPT_0x11
; 0001 0102 }
	RET
; .FEND
;
;void question_03(){
; 0001 0104 void question_03(){
_question_03:
; .FSTART _question_03
; 0001 0105     timerInit_Q3();
	RCALL _timerInit_Q3
; 0001 0106     interruptInit();
	RCALL _interruptInit
; 0001 0107     ADCinit_Q1_Q3();
	RCALL _ADCinit_Q1_Q3
; 0001 0108     #asm("sei")
	sei
; 0001 0109 
; 0001 010A 
; 0001 010B }
	RET
; .FEND
;
;void question_04(){
; 0001 010D void question_04(){
_question_04:
; .FSTART _question_04
; 0001 010E     question_01();
	RCALL _question_01
; 0001 010F     lcd_clear();
	CALL SUBOPT_0xB
; 0001 0110     lcd_gotoxy(0,0);
; 0001 0111     lcd_puts("See the Pulse   for 15 sec");
	__POINTW2MN _0x2000A,0
	CALL _lcd_puts
; 0001 0112     question_03();
	RCALL _question_03
; 0001 0113     delay_ms(15000);
	LDI  R26,LOW(15000)
	LDI  R27,HIGH(15000)
	CALL _delay_ms
; 0001 0114 
; 0001 0115     question_02();
	RCALL _question_02
; 0001 0116 
; 0001 0117 }
	RET
; .FEND

	.DSEG
_0x2000A:
	.BYTE 0x1B
	#ifndef __SLEEP_DEFINED__
	#define __SLEEP_DEFINED__
	.EQU __se_bit=0x40
	.EQU __sm_mask=0xB0
	.EQU __sm_powerdown=0x20
	.EQU __sm_powersave=0x30
	.EQU __sm_standby=0xA0
	.EQU __sm_ext_standby=0xB0
	.EQU __sm_adc_noise_red=0x10
	.SET power_ctrl_reg=mcucr
	#endif

	.CSEG
_put_buff_G100:
; .FSTART _put_buff_G100
	ST   -Y,R27
	ST   -Y,R26
	ST   -Y,R17
	ST   -Y,R16
	LDD  R26,Y+2
	LDD  R27,Y+2+1
	ADIW R26,2
	CALL __GETW1P
	SBIW R30,0
	BREQ _0x2000010
	LDD  R26,Y+2
	LDD  R27,Y+2+1
	ADIW R26,4
	CALL __GETW1P
	MOVW R16,R30
	SBIW R30,0
	BREQ _0x2000012
	__CPWRN 16,17,2
	BRLO _0x2000013
	MOVW R30,R16
	SBIW R30,1
	MOVW R16,R30
	__PUTW1SNS 2,4
_0x2000012:
	LDD  R26,Y+2
	LDD  R27,Y+2+1
	ADIW R26,2
	LD   R30,X+
	LD   R31,X+
	ADIW R30,1
	ST   -X,R31
	ST   -X,R30
	SBIW R30,1
	LDD  R26,Y+4
	STD  Z+0,R26
_0x2000013:
	LDD  R26,Y+2
	LDD  R27,Y+2+1
	CALL __GETW1P
	TST  R31
	BRMI _0x2000014
	LD   R30,X+
	LD   R31,X+
	ADIW R30,1
	ST   -X,R31
	ST   -X,R30
_0x2000014:
	RJMP _0x2000015
_0x2000010:
	LDD  R26,Y+2
	LDD  R27,Y+2+1
	LDI  R30,LOW(65535)
	LDI  R31,HIGH(65535)
	ST   X+,R30
	ST   X,R31
_0x2000015:
	LDD  R17,Y+1
	LDD  R16,Y+0
	ADIW R28,5
	RET
; .FEND
__print_G100:
; .FSTART __print_G100
	ST   -Y,R27
	ST   -Y,R26
	SBIW R28,6
	CALL __SAVELOCR6
	LDI  R17,0
	LDD  R26,Y+12
	LDD  R27,Y+12+1
	LDI  R30,LOW(0)
	LDI  R31,HIGH(0)
	ST   X+,R30
	ST   X,R31
_0x2000016:
	LDD  R30,Y+18
	LDD  R31,Y+18+1
	ADIW R30,1
	STD  Y+18,R30
	STD  Y+18+1,R31
	SBIW R30,1
	LPM  R30,Z
	MOV  R18,R30
	CPI  R30,0
	BRNE PC+2
	RJMP _0x2000018
	MOV  R30,R17
	CPI  R30,0
	BRNE _0x200001C
	CPI  R18,37
	BRNE _0x200001D
	LDI  R17,LOW(1)
	RJMP _0x200001E
_0x200001D:
	CALL SUBOPT_0x14
_0x200001E:
	RJMP _0x200001B
_0x200001C:
	CPI  R30,LOW(0x1)
	BRNE _0x200001F
	CPI  R18,37
	BRNE _0x2000020
	CALL SUBOPT_0x14
	RJMP _0x20000CC
_0x2000020:
	LDI  R17,LOW(2)
	LDI  R20,LOW(0)
	LDI  R16,LOW(0)
	CPI  R18,45
	BRNE _0x2000021
	LDI  R16,LOW(1)
	RJMP _0x200001B
_0x2000021:
	CPI  R18,43
	BRNE _0x2000022
	LDI  R20,LOW(43)
	RJMP _0x200001B
_0x2000022:
	CPI  R18,32
	BRNE _0x2000023
	LDI  R20,LOW(32)
	RJMP _0x200001B
_0x2000023:
	RJMP _0x2000024
_0x200001F:
	CPI  R30,LOW(0x2)
	BRNE _0x2000025
_0x2000024:
	LDI  R21,LOW(0)
	LDI  R17,LOW(3)
	CPI  R18,48
	BRNE _0x2000026
	ORI  R16,LOW(128)
	RJMP _0x200001B
_0x2000026:
	RJMP _0x2000027
_0x2000025:
	CPI  R30,LOW(0x3)
	BREQ PC+2
	RJMP _0x200001B
_0x2000027:
	CPI  R18,48
	BRLO _0x200002A
	CPI  R18,58
	BRLO _0x200002B
_0x200002A:
	RJMP _0x2000029
_0x200002B:
	LDI  R26,LOW(10)
	MUL  R21,R26
	MOV  R21,R0
	MOV  R30,R18
	SUBI R30,LOW(48)
	ADD  R21,R30
	RJMP _0x200001B
_0x2000029:
	MOV  R30,R18
	CPI  R30,LOW(0x63)
	BRNE _0x200002F
	CALL SUBOPT_0x15
	LDD  R30,Y+16
	LDD  R31,Y+16+1
	LDD  R26,Z+4
	ST   -Y,R26
	CALL SUBOPT_0x16
	RJMP _0x2000030
_0x200002F:
	CPI  R30,LOW(0x73)
	BRNE _0x2000032
	CALL SUBOPT_0x15
	CALL SUBOPT_0x17
	CALL _strlen
	MOV  R17,R30
	RJMP _0x2000033
_0x2000032:
	CPI  R30,LOW(0x70)
	BRNE _0x2000035
	CALL SUBOPT_0x15
	CALL SUBOPT_0x17
	CALL _strlenf
	MOV  R17,R30
	ORI  R16,LOW(8)
_0x2000033:
	ORI  R16,LOW(2)
	ANDI R16,LOW(127)
	LDI  R19,LOW(0)
	RJMP _0x2000036
_0x2000035:
	CPI  R30,LOW(0x64)
	BREQ _0x2000039
	CPI  R30,LOW(0x69)
	BRNE _0x200003A
_0x2000039:
	ORI  R16,LOW(4)
	RJMP _0x200003B
_0x200003A:
	CPI  R30,LOW(0x75)
	BRNE _0x200003C
_0x200003B:
	LDI  R30,LOW(_tbl10_G100*2)
	LDI  R31,HIGH(_tbl10_G100*2)
	STD  Y+6,R30
	STD  Y+6+1,R31
	LDI  R17,LOW(5)
	RJMP _0x200003D
_0x200003C:
	CPI  R30,LOW(0x58)
	BRNE _0x200003F
	ORI  R16,LOW(8)
	RJMP _0x2000040
_0x200003F:
	CPI  R30,LOW(0x78)
	BREQ PC+2
	RJMP _0x2000071
_0x2000040:
	LDI  R30,LOW(_tbl16_G100*2)
	LDI  R31,HIGH(_tbl16_G100*2)
	STD  Y+6,R30
	STD  Y+6+1,R31
	LDI  R17,LOW(4)
_0x200003D:
	SBRS R16,2
	RJMP _0x2000042
	CALL SUBOPT_0x15
	CALL SUBOPT_0x18
	LDD  R26,Y+11
	TST  R26
	BRPL _0x2000043
	LDD  R30,Y+10
	LDD  R31,Y+10+1
	CALL __ANEGW1
	STD  Y+10,R30
	STD  Y+10+1,R31
	LDI  R20,LOW(45)
_0x2000043:
	CPI  R20,0
	BREQ _0x2000044
	SUBI R17,-LOW(1)
	RJMP _0x2000045
_0x2000044:
	ANDI R16,LOW(251)
_0x2000045:
	RJMP _0x2000046
_0x2000042:
	CALL SUBOPT_0x15
	CALL SUBOPT_0x18
_0x2000046:
_0x2000036:
	SBRC R16,0
	RJMP _0x2000047
_0x2000048:
	CP   R17,R21
	BRSH _0x200004A
	SBRS R16,7
	RJMP _0x200004B
	SBRS R16,2
	RJMP _0x200004C
	ANDI R16,LOW(251)
	MOV  R18,R20
	SUBI R17,LOW(1)
	RJMP _0x200004D
_0x200004C:
	LDI  R18,LOW(48)
_0x200004D:
	RJMP _0x200004E
_0x200004B:
	LDI  R18,LOW(32)
_0x200004E:
	CALL SUBOPT_0x14
	SUBI R21,LOW(1)
	RJMP _0x2000048
_0x200004A:
_0x2000047:
	MOV  R19,R17
	SBRS R16,1
	RJMP _0x200004F
_0x2000050:
	CPI  R19,0
	BREQ _0x2000052
	SBRS R16,3
	RJMP _0x2000053
	LDD  R30,Y+6
	LDD  R31,Y+6+1
	LPM  R18,Z+
	STD  Y+6,R30
	STD  Y+6+1,R31
	RJMP _0x2000054
_0x2000053:
	LDD  R26,Y+6
	LDD  R27,Y+6+1
	LD   R18,X+
	STD  Y+6,R26
	STD  Y+6+1,R27
_0x2000054:
	CALL SUBOPT_0x14
	CPI  R21,0
	BREQ _0x2000055
	SUBI R21,LOW(1)
_0x2000055:
	SUBI R19,LOW(1)
	RJMP _0x2000050
_0x2000052:
	RJMP _0x2000056
_0x200004F:
_0x2000058:
	LDI  R18,LOW(48)
	LDD  R30,Y+6
	LDD  R31,Y+6+1
	CALL __GETW1PF
	STD  Y+8,R30
	STD  Y+8+1,R31
	LDD  R30,Y+6
	LDD  R31,Y+6+1
	ADIW R30,2
	STD  Y+6,R30
	STD  Y+6+1,R31
_0x200005A:
	LDD  R30,Y+8
	LDD  R31,Y+8+1
	LDD  R26,Y+10
	LDD  R27,Y+10+1
	CP   R26,R30
	CPC  R27,R31
	BRLO _0x200005C
	SUBI R18,-LOW(1)
	LDD  R26,Y+8
	LDD  R27,Y+8+1
	LDD  R30,Y+10
	LDD  R31,Y+10+1
	SUB  R30,R26
	SBC  R31,R27
	STD  Y+10,R30
	STD  Y+10+1,R31
	RJMP _0x200005A
_0x200005C:
	CPI  R18,58
	BRLO _0x200005D
	SBRS R16,3
	RJMP _0x200005E
	SUBI R18,-LOW(7)
	RJMP _0x200005F
_0x200005E:
	SUBI R18,-LOW(39)
_0x200005F:
_0x200005D:
	SBRC R16,4
	RJMP _0x2000061
	CPI  R18,49
	BRSH _0x2000063
	LDD  R26,Y+8
	LDD  R27,Y+8+1
	SBIW R26,1
	BRNE _0x2000062
_0x2000063:
	RJMP _0x20000CD
_0x2000062:
	CP   R21,R19
	BRLO _0x2000067
	SBRS R16,0
	RJMP _0x2000068
_0x2000067:
	RJMP _0x2000066
_0x2000068:
	LDI  R18,LOW(32)
	SBRS R16,7
	RJMP _0x2000069
	LDI  R18,LOW(48)
_0x20000CD:
	ORI  R16,LOW(16)
	SBRS R16,2
	RJMP _0x200006A
	ANDI R16,LOW(251)
	ST   -Y,R20
	CALL SUBOPT_0x16
	CPI  R21,0
	BREQ _0x200006B
	SUBI R21,LOW(1)
_0x200006B:
_0x200006A:
_0x2000069:
_0x2000061:
	CALL SUBOPT_0x14
	CPI  R21,0
	BREQ _0x200006C
	SUBI R21,LOW(1)
_0x200006C:
_0x2000066:
	SUBI R19,LOW(1)
	LDD  R26,Y+8
	LDD  R27,Y+8+1
	SBIW R26,2
	BRLO _0x2000059
	RJMP _0x2000058
_0x2000059:
_0x2000056:
	SBRS R16,0
	RJMP _0x200006D
_0x200006E:
	CPI  R21,0
	BREQ _0x2000070
	SUBI R21,LOW(1)
	LDI  R30,LOW(32)
	ST   -Y,R30
	CALL SUBOPT_0x16
	RJMP _0x200006E
_0x2000070:
_0x200006D:
_0x2000071:
_0x2000030:
_0x20000CC:
	LDI  R17,LOW(0)
_0x200001B:
	RJMP _0x2000016
_0x2000018:
	LDD  R26,Y+12
	LDD  R27,Y+12+1
	CALL __GETW1P
	CALL __LOADLOCR6
	ADIW R28,20
	RET
; .FEND
_sprintf:
; .FSTART _sprintf
	PUSH R15
	MOV  R15,R24
	SBIW R28,6
	CALL __SAVELOCR4
	CALL SUBOPT_0x19
	SBIW R30,0
	BRNE _0x2000072
	LDI  R30,LOW(65535)
	LDI  R31,HIGH(65535)
	RJMP _0x20C0003
_0x2000072:
	MOVW R26,R28
	ADIW R26,6
	CALL __ADDW2R15
	MOVW R16,R26
	CALL SUBOPT_0x19
	STD  Y+6,R30
	STD  Y+6+1,R31
	LDI  R30,LOW(0)
	STD  Y+8,R30
	STD  Y+8+1,R30
	MOVW R26,R28
	ADIW R26,10
	CALL __ADDW2R15
	CALL __GETW1P
	ST   -Y,R31
	ST   -Y,R30
	ST   -Y,R17
	ST   -Y,R16
	LDI  R30,LOW(_put_buff_G100)
	LDI  R31,HIGH(_put_buff_G100)
	ST   -Y,R31
	ST   -Y,R30
	MOVW R26,R28
	ADIW R26,10
	RCALL __print_G100
	MOVW R18,R30
	LDD  R26,Y+6
	LDD  R27,Y+6+1
	LDI  R30,LOW(0)
	ST   X,R30
	MOVW R30,R18
_0x20C0003:
	CALL __LOADLOCR4
	ADIW R28,10
	POP  R15
	RET
; .FEND
	#ifndef __SLEEP_DEFINED__
	#define __SLEEP_DEFINED__
	.EQU __se_bit=0x40
	.EQU __sm_mask=0xB0
	.EQU __sm_powerdown=0x20
	.EQU __sm_powersave=0x30
	.EQU __sm_standby=0xA0
	.EQU __sm_ext_standby=0xB0
	.EQU __sm_adc_noise_red=0x10
	.SET power_ctrl_reg=mcucr
	#endif

	.DSEG

	.CSEG
__lcd_write_nibble_G101:
; .FSTART __lcd_write_nibble_G101
	ST   -Y,R26
	IN   R30,0x15
	ANDI R30,LOW(0xF)
	MOV  R26,R30
	LD   R30,Y
	ANDI R30,LOW(0xF0)
	OR   R30,R26
	OUT  0x15,R30
	__DELAY_USB 13
	SBI  0x15,2
	__DELAY_USB 13
	CBI  0x15,2
	__DELAY_USB 13
	RJMP _0x20C0002
; .FEND
__lcd_write_data:
; .FSTART __lcd_write_data
	ST   -Y,R26
	LD   R26,Y
	RCALL __lcd_write_nibble_G101
    ld    r30,y
    swap  r30
    st    y,r30
	LD   R26,Y
	RCALL __lcd_write_nibble_G101
	__DELAY_USB 133
	RJMP _0x20C0002
; .FEND
_lcd_gotoxy:
; .FSTART _lcd_gotoxy
	ST   -Y,R26
	LD   R30,Y
	LDI  R31,0
	SUBI R30,LOW(-__base_y_G101)
	SBCI R31,HIGH(-__base_y_G101)
	LD   R30,Z
	LDD  R26,Y+1
	ADD  R26,R30
	RCALL __lcd_write_data
	LDD  R5,Y+1
	LDD  R4,Y+0
	ADIW R28,2
	RET
; .FEND
_lcd_clear:
; .FSTART _lcd_clear
	LDI  R26,LOW(2)
	CALL SUBOPT_0x1A
	LDI  R26,LOW(12)
	RCALL __lcd_write_data
	LDI  R26,LOW(1)
	CALL SUBOPT_0x1A
	LDI  R30,LOW(0)
	MOV  R4,R30
	MOV  R5,R30
	RET
; .FEND
_lcd_putchar:
; .FSTART _lcd_putchar
	ST   -Y,R26
	LD   R26,Y
	CPI  R26,LOW(0xA)
	BREQ _0x2020005
	CP   R5,R7
	BRLO _0x2020004
_0x2020005:
	LDI  R30,LOW(0)
	ST   -Y,R30
	INC  R4
	MOV  R26,R4
	RCALL _lcd_gotoxy
	LD   R26,Y
	CPI  R26,LOW(0xA)
	BRNE _0x2020007
	RJMP _0x20C0002
_0x2020007:
_0x2020004:
	INC  R5
	SBI  0x15,0
	LD   R26,Y
	RCALL __lcd_write_data
	CBI  0x15,0
	RJMP _0x20C0002
; .FEND
_lcd_puts:
; .FSTART _lcd_puts
	ST   -Y,R27
	ST   -Y,R26
	ST   -Y,R17
_0x2020008:
	LDD  R26,Y+1
	LDD  R27,Y+1+1
	LD   R30,X+
	STD  Y+1,R26
	STD  Y+1+1,R27
	MOV  R17,R30
	CPI  R30,0
	BREQ _0x202000A
	MOV  R26,R17
	RCALL _lcd_putchar
	RJMP _0x2020008
_0x202000A:
	LDD  R17,Y+0
	ADIW R28,3
	RET
; .FEND
_lcd_init:
; .FSTART _lcd_init
	ST   -Y,R26
	IN   R30,0x14
	ORI  R30,LOW(0xF0)
	OUT  0x14,R30
	SBI  0x14,2
	SBI  0x14,0
	SBI  0x14,1
	CBI  0x15,2
	CBI  0x15,0
	CBI  0x15,1
	LDD  R7,Y+0
	LD   R30,Y
	SUBI R30,-LOW(128)
	__PUTB1MN __base_y_G101,2
	LD   R30,Y
	SUBI R30,-LOW(192)
	__PUTB1MN __base_y_G101,3
	LDI  R26,LOW(20)
	LDI  R27,0
	CALL _delay_ms
	CALL SUBOPT_0x1B
	CALL SUBOPT_0x1B
	CALL SUBOPT_0x1B
	LDI  R26,LOW(32)
	RCALL __lcd_write_nibble_G101
	__DELAY_USW 200
	LDI  R26,LOW(40)
	RCALL __lcd_write_data
	LDI  R26,LOW(4)
	RCALL __lcd_write_data
	LDI  R26,LOW(133)
	RCALL __lcd_write_data
	LDI  R26,LOW(6)
	RCALL __lcd_write_data
	RCALL _lcd_clear
_0x20C0002:
	ADIW R28,1
	RET
; .FEND

	.CSEG
_ftrunc:
; .FSTART _ftrunc
	CALL __PUTPARD2
   ldd  r23,y+3
   ldd  r22,y+2
   ldd  r31,y+1
   ld   r30,y
   bst  r23,7
   lsl  r23
   sbrc r22,7
   sbr  r23,1
   mov  r25,r23
   subi r25,0x7e
   breq __ftrunc0
   brcs __ftrunc0
   cpi  r25,24
   brsh __ftrunc1
   clr  r26
   clr  r27
   clr  r24
__ftrunc2:
   sec
   ror  r24
   ror  r27
   ror  r26
   dec  r25
   brne __ftrunc2
   and  r30,r26
   and  r31,r27
   and  r22,r24
   rjmp __ftrunc1
__ftrunc0:
   clt
   clr  r23
   clr  r30
   clr  r31
   clr  r22
__ftrunc1:
   cbr  r22,0x80
   lsr  r23
   brcc __ftrunc3
   sbr  r22,0x80
__ftrunc3:
   bld  r23,7
   ld   r26,y+
   ld   r27,y+
   ld   r24,y+
   ld   r25,y+
   cp   r30,r26
   cpc  r31,r27
   cpc  r22,r24
   cpc  r23,r25
   bst  r25,7
   ret
; .FEND
_floor:
; .FSTART _floor
	CALL __PUTPARD2
	CALL __GETD2S0
	CALL _ftrunc
	CALL __PUTD1S0
    brne __floor1
__floor0:
	CALL __GETD1S0
	RJMP _0x20C0001
__floor1:
    brtc __floor0
	CALL __GETD1S0
	__GETD2N 0x3F800000
	CALL __SUBF12
_0x20C0001:
	ADIW R28,4
	RET
; .FEND

	.CSEG

	.CSEG
_strlen:
; .FSTART _strlen
	ST   -Y,R27
	ST   -Y,R26
    ld   r26,y+
    ld   r27,y+
    clr  r30
    clr  r31
strlen0:
    ld   r22,x+
    tst  r22
    breq strlen1
    adiw r30,1
    rjmp strlen0
strlen1:
    ret
; .FEND
_strlenf:
; .FSTART _strlenf
	ST   -Y,R27
	ST   -Y,R26
    clr  r26
    clr  r27
    ld   r30,y+
    ld   r31,y+
strlenf0:
	lpm  r0,z+
    tst  r0
    breq strlenf1
    adiw r26,1
    rjmp strlenf0
strlenf1:
    movw r30,r26
    ret
; .FEND

	.CSEG

	.DSEG

	.CSEG

	.DSEG
_adc_data:
	.BYTE 0x10
_last_result:
	.BYTE 0x10
_space:
	.BYTE 0x2
_i:
	.BYTE 0x2
_resultInString:
	.BYTE 0x12
_result:
	.BYTE 0x2
_result2:
	.BYTE 0x2
_temp1:
	.BYTE 0x4
_temp2:
	.BYTE 0x4
_input:
	.BYTE 0x4
_dutyCycle:
	.BYTE 0x4
_ocrNumber:
	.BYTE 0x4
_input_index_S0000000000:
	.BYTE 0x1
__base_y_G101:
	.BYTE 0x4
__seed_G105:
	.BYTE 0x4

	.CSEG
;OPTIMIZER ADDED SUBROUTINE, CALLED 2 TIMES, CODE SIZE REDUCTION:8 WORDS
SUBOPT_0x0:
	ST   -Y,R0
	ST   -Y,R1
	ST   -Y,R15
	ST   -Y,R22
	ST   -Y,R23
	ST   -Y,R24
	ST   -Y,R25
	ST   -Y,R26
	ST   -Y,R27
	ST   -Y,R30
	ST   -Y,R31
	IN   R30,SREG
	ST   -Y,R30
	RET

;OPTIMIZER ADDED SUBROUTINE, CALLED 2 TIMES, CODE SIZE REDUCTION:18 WORDS
SUBOPT_0x1:
	LDI  R30,LOW(0)
	STS  _result,R30
	STS  _result+1,R30
	STS  _temp1,R30
	STS  _temp1+1,R30
	STS  _temp1+2,R30
	STS  _temp1+3,R30
	STS  _temp2,R30
	STS  _temp2+1,R30
	STS  _temp2+2,R30
	STS  _temp2+3,R30
	RET

;OPTIMIZER ADDED SUBROUTINE, CALLED 2 TIMES, CODE SIZE REDUCTION:2 WORDS
SUBOPT_0x2:
	LDI  R26,LOW(_i)
	LDI  R27,HIGH(_i)
	LD   R30,X+
	LD   R31,X+
	ADIW R30,1
	ST   -X,R31
	ST   -X,R30
	RET

;OPTIMIZER ADDED SUBROUTINE, CALLED 6 TIMES, CODE SIZE REDUCTION:7 WORDS
SUBOPT_0x3:
	LDS  R30,_i
	LDS  R31,_i+1
	RET

;OPTIMIZER ADDED SUBROUTINE, CALLED 3 TIMES, CODE SIZE REDUCTION:5 WORDS
SUBOPT_0x4:
	LSL  R30
	ROL  R31
	ADD  R26,R30
	ADC  R27,R31
	CALL __GETW1P
	RET

;OPTIMIZER ADDED SUBROUTINE, CALLED 2 TIMES, CODE SIZE REDUCTION:3 WORDS
SUBOPT_0x5:
	STS  _result,R30
	STS  _result+1,R31
	RET

;OPTIMIZER ADDED SUBROUTINE, CALLED 5 TIMES, CODE SIZE REDUCTION:5 WORDS
SUBOPT_0x6:
	LDS  R30,_result
	LDS  R31,_result+1
	RET

;OPTIMIZER ADDED SUBROUTINE, CALLED 3 TIMES, CODE SIZE REDUCTION:33 WORDS
SUBOPT_0x7:
	LDI  R26,LOW(5)
	LDI  R27,HIGH(5)
	CALL __MULW12
	LDI  R26,LOW(_temp2)
	LDI  R27,HIGH(_temp2)
	CALL __CWD1
	CALL __CDF1
	CALL __PUTDP1
	LDS  R26,_temp2
	LDS  R27,_temp2+1
	LDS  R24,_temp2+2
	LDS  R25,_temp2+3
	RET

;OPTIMIZER ADDED SUBROUTINE, CALLED 2 TIMES, CODE SIZE REDUCTION:1 WORDS
SUBOPT_0x8:
	__GETD1N 0x42C80000
	CALL __DIVF21
	RET

;OPTIMIZER ADDED SUBROUTINE, CALLED 2 TIMES, CODE SIZE REDUCTION:1 WORDS
SUBOPT_0x9:
	RCALL SUBOPT_0x3
	LDI  R26,LOW(_last_result)
	LDI  R27,HIGH(_last_result)
	RJMP SUBOPT_0x4

;OPTIMIZER ADDED SUBROUTINE, CALLED 2 TIMES, CODE SIZE REDUCTION:1 WORDS
SUBOPT_0xA:
	CLR  R22
	CLR  R23
	CALL __CDF1
	CALL __CMPF12
	RET

;OPTIMIZER ADDED SUBROUTINE, CALLED 3 TIMES, CODE SIZE REDUCTION:7 WORDS
SUBOPT_0xB:
	CALL _lcd_clear
	LDI  R30,LOW(0)
	ST   -Y,R30
	LDI  R26,LOW(0)
	JMP  _lcd_gotoxy

;OPTIMIZER ADDED SUBROUTINE, CALLED 3 TIMES, CODE SIZE REDUCTION:5 WORDS
SUBOPT_0xC:
	__GETD1N 0x447FC000
	CALL __DIVF21
	RET

;OPTIMIZER ADDED SUBROUTINE, CALLED 4 TIMES, CODE SIZE REDUCTION:39 WORDS
SUBOPT_0xD:
	STS  _temp1,R30
	STS  _temp1+1,R31
	STS  _temp1+2,R22
	STS  _temp1+3,R23
	LDS  R26,_temp1
	LDS  R27,_temp1+1
	LDS  R24,_temp1+2
	LDS  R25,_temp1+3
	RET

;OPTIMIZER ADDED SUBROUTINE, CALLED 2 TIMES, CODE SIZE REDUCTION:3 WORDS
SUBOPT_0xE:
	__GETD1N 0x447A0000
	CALL __MULF12
	RJMP SUBOPT_0xD

;OPTIMIZER ADDED SUBROUTINE, CALLED 2 TIMES, CODE SIZE REDUCTION:7 WORDS
SUBOPT_0xF:
	CALL _floor
	LDI  R26,LOW(_result)
	LDI  R27,HIGH(_result)
	CALL __CFD1
	ST   X+,R30
	ST   X,R31
	LDI  R30,LOW(_resultInString)
	LDI  R31,HIGH(_resultInString)
	ST   -Y,R31
	ST   -Y,R30
	RET

;OPTIMIZER ADDED SUBROUTINE, CALLED 2 TIMES, CODE SIZE REDUCTION:37 WORDS
SUBOPT_0x10:
	ST   -Y,R31
	ST   -Y,R30
	RCALL SUBOPT_0x3
	CALL __CWD1
	CALL __PUTPARD1
	RCALL SUBOPT_0x6
	CALL __CWD1
	CALL __PUTPARD1
	LDI  R24,8
	CALL _sprintf
	ADIW R28,12
	LDI  R30,LOW(0)
	ST   -Y,R30
	LDI  R26,LOW(1)
	CALL _lcd_gotoxy
	LDS  R26,_space
	LDS  R27,_space+1
	CALL _lcd_puts
	LDI  R30,LOW(0)
	ST   -Y,R30
	LDI  R26,LOW(1)
	CALL _lcd_gotoxy
	LDI  R26,LOW(_resultInString)
	LDI  R27,HIGH(_resultInString)
	CALL _lcd_puts
	LDI  R26,LOW(1000)
	LDI  R27,HIGH(1000)
	JMP  _delay_ms

;OPTIMIZER ADDED SUBROUTINE, CALLED 2 TIMES, CODE SIZE REDUCTION:1 WORDS
SUBOPT_0x11:
	LDI  R30,LOW(65535)
	LDI  R31,HIGH(65535)
	STS  _i,R30
	STS  _i+1,R31
	RET

;OPTIMIZER ADDED SUBROUTINE, CALLED 2 TIMES, CODE SIZE REDUCTION:24 WORDS
SUBOPT_0x12:
	OUT  0x3C,R30
	LDI  R30,LOW(0)
	OUT  0x2F,R30
	OUT  0x2E,R30
	OUT  0x2D,R30
	OUT  0x2C,R30
	OUT  0x27,R30
	OUT  0x26,R30
	OUT  0x2B,R30
	OUT  0x2A,R30
	OUT  0x29,R30
	OUT  0x28,R30
	OUT  0x22,R30
	OUT  0x25,R30
	OUT  0x24,R30
	OUT  0x23,R30
	RET

;OPTIMIZER ADDED SUBROUTINE, CALLED 2 TIMES, CODE SIZE REDUCTION:2 WORDS
SUBOPT_0x13:
	OUT  0x6,R30
	LDI  R30,LOW(0)
	OUT  0x30,R30
	OUT  0xD,R30
	OUT  0x36,R30
	RET

;OPTIMIZER ADDED SUBROUTINE, CALLED 5 TIMES, CODE SIZE REDUCTION:13 WORDS
SUBOPT_0x14:
	ST   -Y,R18
	LDD  R26,Y+13
	LDD  R27,Y+13+1
	LDD  R30,Y+15
	LDD  R31,Y+15+1
	ICALL
	RET

;OPTIMIZER ADDED SUBROUTINE, CALLED 5 TIMES, CODE SIZE REDUCTION:9 WORDS
SUBOPT_0x15:
	LDD  R30,Y+16
	LDD  R31,Y+16+1
	SBIW R30,4
	STD  Y+16,R30
	STD  Y+16+1,R31
	RET

;OPTIMIZER ADDED SUBROUTINE, CALLED 3 TIMES, CODE SIZE REDUCTION:3 WORDS
SUBOPT_0x16:
	LDD  R26,Y+13
	LDD  R27,Y+13+1
	LDD  R30,Y+15
	LDD  R31,Y+15+1
	ICALL
	RET

;OPTIMIZER ADDED SUBROUTINE, CALLED 2 TIMES, CODE SIZE REDUCTION:4 WORDS
SUBOPT_0x17:
	LDD  R26,Y+16
	LDD  R27,Y+16+1
	ADIW R26,4
	CALL __GETW1P
	STD  Y+6,R30
	STD  Y+6+1,R31
	LDD  R26,Y+6
	LDD  R27,Y+6+1
	RET

;OPTIMIZER ADDED SUBROUTINE, CALLED 2 TIMES, CODE SIZE REDUCTION:2 WORDS
SUBOPT_0x18:
	LDD  R26,Y+16
	LDD  R27,Y+16+1
	ADIW R26,4
	CALL __GETW1P
	STD  Y+10,R30
	STD  Y+10+1,R31
	RET

;OPTIMIZER ADDED SUBROUTINE, CALLED 2 TIMES, CODE SIZE REDUCTION:1 WORDS
SUBOPT_0x19:
	MOVW R26,R28
	ADIW R26,12
	CALL __ADDW2R15
	CALL __GETW1P
	RET

;OPTIMIZER ADDED SUBROUTINE, CALLED 2 TIMES, CODE SIZE REDUCTION:1 WORDS
SUBOPT_0x1A:
	CALL __lcd_write_data
	LDI  R26,LOW(3)
	LDI  R27,0
	JMP  _delay_ms

;OPTIMIZER ADDED SUBROUTINE, CALLED 3 TIMES, CODE SIZE REDUCTION:7 WORDS
SUBOPT_0x1B:
	LDI  R26,LOW(48)
	CALL __lcd_write_nibble_G101
	__DELAY_USW 200
	RET


	.CSEG
_delay_ms:
	adiw r26,0
	breq __delay_ms1
__delay_ms0:
	__DELAY_USW 0x7D0
	wdr
	sbiw r26,1
	brne __delay_ms0
__delay_ms1:
	ret

__ROUND_REPACK:
	TST  R21
	BRPL __REPACK
	CPI  R21,0x80
	BRNE __ROUND_REPACK0
	SBRS R30,0
	RJMP __REPACK
__ROUND_REPACK0:
	ADIW R30,1
	ADC  R22,R25
	ADC  R23,R25
	BRVS __REPACK1

__REPACK:
	LDI  R21,0x80
	EOR  R21,R23
	BRNE __REPACK0
	PUSH R21
	RJMP __ZERORES
__REPACK0:
	CPI  R21,0xFF
	BREQ __REPACK1
	LSL  R22
	LSL  R0
	ROR  R21
	ROR  R22
	MOV  R23,R21
	RET
__REPACK1:
	PUSH R21
	TST  R0
	BRMI __REPACK2
	RJMP __MAXRES
__REPACK2:
	RJMP __MINRES

__UNPACK:
	LDI  R21,0x80
	MOV  R1,R25
	AND  R1,R21
	LSL  R24
	ROL  R25
	EOR  R25,R21
	LSL  R21
	ROR  R24

__UNPACK1:
	LDI  R21,0x80
	MOV  R0,R23
	AND  R0,R21
	LSL  R22
	ROL  R23
	EOR  R23,R21
	LSL  R21
	ROR  R22
	RET

__CFD1U:
	SET
	RJMP __CFD1U0
__CFD1:
	CLT
__CFD1U0:
	PUSH R21
	RCALL __UNPACK1
	CPI  R23,0x80
	BRLO __CFD10
	CPI  R23,0xFF
	BRCC __CFD10
	RJMP __ZERORES
__CFD10:
	LDI  R21,22
	SUB  R21,R23
	BRPL __CFD11
	NEG  R21
	CPI  R21,8
	BRTC __CFD19
	CPI  R21,9
__CFD19:
	BRLO __CFD17
	SER  R30
	SER  R31
	SER  R22
	LDI  R23,0x7F
	BLD  R23,7
	RJMP __CFD15
__CFD17:
	CLR  R23
	TST  R21
	BREQ __CFD15
__CFD18:
	LSL  R30
	ROL  R31
	ROL  R22
	ROL  R23
	DEC  R21
	BRNE __CFD18
	RJMP __CFD15
__CFD11:
	CLR  R23
__CFD12:
	CPI  R21,8
	BRLO __CFD13
	MOV  R30,R31
	MOV  R31,R22
	MOV  R22,R23
	SUBI R21,8
	RJMP __CFD12
__CFD13:
	TST  R21
	BREQ __CFD15
__CFD14:
	LSR  R23
	ROR  R22
	ROR  R31
	ROR  R30
	DEC  R21
	BRNE __CFD14
__CFD15:
	TST  R0
	BRPL __CFD16
	RCALL __ANEGD1
__CFD16:
	POP  R21
	RET

__CDF1U:
	SET
	RJMP __CDF1U0
__CDF1:
	CLT
__CDF1U0:
	SBIW R30,0
	SBCI R22,0
	SBCI R23,0
	BREQ __CDF10
	CLR  R0
	BRTS __CDF11
	TST  R23
	BRPL __CDF11
	COM  R0
	RCALL __ANEGD1
__CDF11:
	MOV  R1,R23
	LDI  R23,30
	TST  R1
__CDF12:
	BRMI __CDF13
	DEC  R23
	LSL  R30
	ROL  R31
	ROL  R22
	ROL  R1
	RJMP __CDF12
__CDF13:
	MOV  R30,R31
	MOV  R31,R22
	MOV  R22,R1
	PUSH R21
	RCALL __REPACK
	POP  R21
__CDF10:
	RET

__SWAPACC:
	PUSH R20
	MOVW R20,R30
	MOVW R30,R26
	MOVW R26,R20
	MOVW R20,R22
	MOVW R22,R24
	MOVW R24,R20
	MOV  R20,R0
	MOV  R0,R1
	MOV  R1,R20
	POP  R20
	RET

__UADD12:
	ADD  R30,R26
	ADC  R31,R27
	ADC  R22,R24
	RET

__NEGMAN1:
	COM  R30
	COM  R31
	COM  R22
	SUBI R30,-1
	SBCI R31,-1
	SBCI R22,-1
	RET

__SUBF12:
	PUSH R21
	RCALL __UNPACK
	CPI  R25,0x80
	BREQ __ADDF129
	LDI  R21,0x80
	EOR  R1,R21

	RJMP __ADDF120

__ADDF12:
	PUSH R21
	RCALL __UNPACK
	CPI  R25,0x80
	BREQ __ADDF129

__ADDF120:
	CPI  R23,0x80
	BREQ __ADDF128
__ADDF121:
	MOV  R21,R23
	SUB  R21,R25
	BRVS __ADDF1211
	BRPL __ADDF122
	RCALL __SWAPACC
	RJMP __ADDF121
__ADDF122:
	CPI  R21,24
	BRLO __ADDF123
	CLR  R26
	CLR  R27
	CLR  R24
__ADDF123:
	CPI  R21,8
	BRLO __ADDF124
	MOV  R26,R27
	MOV  R27,R24
	CLR  R24
	SUBI R21,8
	RJMP __ADDF123
__ADDF124:
	TST  R21
	BREQ __ADDF126
__ADDF125:
	LSR  R24
	ROR  R27
	ROR  R26
	DEC  R21
	BRNE __ADDF125
__ADDF126:
	MOV  R21,R0
	EOR  R21,R1
	BRMI __ADDF127
	RCALL __UADD12
	BRCC __ADDF129
	ROR  R22
	ROR  R31
	ROR  R30
	INC  R23
	BRVC __ADDF129
	RJMP __MAXRES
__ADDF128:
	RCALL __SWAPACC
__ADDF129:
	RCALL __REPACK
	POP  R21
	RET
__ADDF1211:
	BRCC __ADDF128
	RJMP __ADDF129
__ADDF127:
	SUB  R30,R26
	SBC  R31,R27
	SBC  R22,R24
	BREQ __ZERORES
	BRCC __ADDF1210
	COM  R0
	RCALL __NEGMAN1
__ADDF1210:
	TST  R22
	BRMI __ADDF129
	LSL  R30
	ROL  R31
	ROL  R22
	DEC  R23
	BRVC __ADDF1210

__ZERORES:
	CLR  R30
	CLR  R31
	CLR  R22
	CLR  R23
	POP  R21
	RET

__MINRES:
	SER  R30
	SER  R31
	LDI  R22,0x7F
	SER  R23
	POP  R21
	RET

__MAXRES:
	SER  R30
	SER  R31
	LDI  R22,0x7F
	LDI  R23,0x7F
	POP  R21
	RET

__MULF12:
	PUSH R21
	RCALL __UNPACK
	CPI  R23,0x80
	BREQ __ZERORES
	CPI  R25,0x80
	BREQ __ZERORES
	EOR  R0,R1
	SEC
	ADC  R23,R25
	BRVC __MULF124
	BRLT __ZERORES
__MULF125:
	TST  R0
	BRMI __MINRES
	RJMP __MAXRES
__MULF124:
	PUSH R0
	PUSH R17
	PUSH R18
	PUSH R19
	PUSH R20
	CLR  R17
	CLR  R18
	CLR  R25
	MUL  R22,R24
	MOVW R20,R0
	MUL  R24,R31
	MOV  R19,R0
	ADD  R20,R1
	ADC  R21,R25
	MUL  R22,R27
	ADD  R19,R0
	ADC  R20,R1
	ADC  R21,R25
	MUL  R24,R30
	RCALL __MULF126
	MUL  R27,R31
	RCALL __MULF126
	MUL  R22,R26
	RCALL __MULF126
	MUL  R27,R30
	RCALL __MULF127
	MUL  R26,R31
	RCALL __MULF127
	MUL  R26,R30
	ADD  R17,R1
	ADC  R18,R25
	ADC  R19,R25
	ADC  R20,R25
	ADC  R21,R25
	MOV  R30,R19
	MOV  R31,R20
	MOV  R22,R21
	MOV  R21,R18
	POP  R20
	POP  R19
	POP  R18
	POP  R17
	POP  R0
	TST  R22
	BRMI __MULF122
	LSL  R21
	ROL  R30
	ROL  R31
	ROL  R22
	RJMP __MULF123
__MULF122:
	INC  R23
	BRVS __MULF125
__MULF123:
	RCALL __ROUND_REPACK
	POP  R21
	RET

__MULF127:
	ADD  R17,R0
	ADC  R18,R1
	ADC  R19,R25
	RJMP __MULF128
__MULF126:
	ADD  R18,R0
	ADC  R19,R1
__MULF128:
	ADC  R20,R25
	ADC  R21,R25
	RET

__DIVF21:
	PUSH R21
	RCALL __UNPACK
	CPI  R23,0x80
	BRNE __DIVF210
	TST  R1
__DIVF211:
	BRPL __DIVF219
	RJMP __MINRES
__DIVF219:
	RJMP __MAXRES
__DIVF210:
	CPI  R25,0x80
	BRNE __DIVF218
__DIVF217:
	RJMP __ZERORES
__DIVF218:
	EOR  R0,R1
	SEC
	SBC  R25,R23
	BRVC __DIVF216
	BRLT __DIVF217
	TST  R0
	RJMP __DIVF211
__DIVF216:
	MOV  R23,R25
	PUSH R17
	PUSH R18
	PUSH R19
	PUSH R20
	CLR  R1
	CLR  R17
	CLR  R18
	CLR  R19
	CLR  R20
	CLR  R21
	LDI  R25,32
__DIVF212:
	CP   R26,R30
	CPC  R27,R31
	CPC  R24,R22
	CPC  R20,R17
	BRLO __DIVF213
	SUB  R26,R30
	SBC  R27,R31
	SBC  R24,R22
	SBC  R20,R17
	SEC
	RJMP __DIVF214
__DIVF213:
	CLC
__DIVF214:
	ROL  R21
	ROL  R18
	ROL  R19
	ROL  R1
	ROL  R26
	ROL  R27
	ROL  R24
	ROL  R20
	DEC  R25
	BRNE __DIVF212
	MOVW R30,R18
	MOV  R22,R1
	POP  R20
	POP  R19
	POP  R18
	POP  R17
	TST  R22
	BRMI __DIVF215
	LSL  R21
	ROL  R30
	ROL  R31
	ROL  R22
	DEC  R23
	BRVS __DIVF217
__DIVF215:
	RCALL __ROUND_REPACK
	POP  R21
	RET

__CMPF12:
	TST  R25
	BRMI __CMPF120
	TST  R23
	BRMI __CMPF121
	CP   R25,R23
	BRLO __CMPF122
	BRNE __CMPF121
	CP   R26,R30
	CPC  R27,R31
	CPC  R24,R22
	BRLO __CMPF122
	BREQ __CMPF123
__CMPF121:
	CLZ
	CLC
	RET
__CMPF122:
	CLZ
	SEC
	RET
__CMPF123:
	SEZ
	CLC
	RET
__CMPF120:
	TST  R23
	BRPL __CMPF122
	CP   R25,R23
	BRLO __CMPF121
	BRNE __CMPF122
	CP   R30,R26
	CPC  R31,R27
	CPC  R22,R24
	BRLO __CMPF122
	BREQ __CMPF123
	RJMP __CMPF121

__ADDW2R15:
	CLR  R0
	ADD  R26,R15
	ADC  R27,R0
	RET

__ANEGW1:
	NEG  R31
	NEG  R30
	SBCI R31,0
	RET

__ANEGD1:
	COM  R31
	COM  R22
	COM  R23
	NEG  R30
	SBCI R31,-1
	SBCI R22,-1
	SBCI R23,-1
	RET

__CWD1:
	MOV  R22,R31
	ADD  R22,R22
	SBC  R22,R22
	MOV  R23,R22
	RET

__CWD2:
	MOV  R24,R27
	ADD  R24,R24
	SBC  R24,R24
	MOV  R25,R24
	RET

__MULW12U:
	MUL  R31,R26
	MOV  R31,R0
	MUL  R30,R27
	ADD  R31,R0
	MUL  R30,R26
	MOV  R30,R0
	ADD  R31,R1
	RET

__MULD12U:
	MUL  R23,R26
	MOV  R23,R0
	MUL  R22,R27
	ADD  R23,R0
	MUL  R31,R24
	ADD  R23,R0
	MUL  R30,R25
	ADD  R23,R0
	MUL  R22,R26
	MOV  R22,R0
	ADD  R23,R1
	MUL  R31,R27
	ADD  R22,R0
	ADC  R23,R1
	MUL  R30,R24
	ADD  R22,R0
	ADC  R23,R1
	CLR  R24
	MUL  R31,R26
	MOV  R31,R0
	ADD  R22,R1
	ADC  R23,R24
	MUL  R30,R27
	ADD  R31,R0
	ADC  R22,R1
	ADC  R23,R24
	MUL  R30,R26
	MOV  R30,R0
	ADD  R31,R1
	ADC  R22,R24
	ADC  R23,R24
	RET

__MULW12:
	RCALL __CHKSIGNW
	RCALL __MULW12U
	BRTC __MULW121
	RCALL __ANEGW1
__MULW121:
	RET

__MULD12:
	RCALL __CHKSIGND
	RCALL __MULD12U
	BRTC __MULD121
	RCALL __ANEGD1
__MULD121:
	RET

__CHKSIGNW:
	CLT
	SBRS R31,7
	RJMP __CHKSW1
	RCALL __ANEGW1
	SET
__CHKSW1:
	SBRS R27,7
	RJMP __CHKSW2
	COM  R26
	COM  R27
	ADIW R26,1
	BLD  R0,0
	INC  R0
	BST  R0,0
__CHKSW2:
	RET

__CHKSIGND:
	CLT
	SBRS R23,7
	RJMP __CHKSD1
	RCALL __ANEGD1
	SET
__CHKSD1:
	SBRS R25,7
	RJMP __CHKSD2
	CLR  R0
	COM  R26
	COM  R27
	COM  R24
	COM  R25
	ADIW R26,1
	ADC  R24,R0
	ADC  R25,R0
	BLD  R0,0
	INC  R0
	BST  R0,0
__CHKSD2:
	RET

__GETW1P:
	LD   R30,X+
	LD   R31,X
	SBIW R26,1
	RET

__PUTDP1:
	ST   X+,R30
	ST   X+,R31
	ST   X+,R22
	ST   X,R23
	RET

__GETW1PF:
	LPM  R0,Z+
	LPM  R31,Z
	MOV  R30,R0
	RET

__GETD1S0:
	LD   R30,Y
	LDD  R31,Y+1
	LDD  R22,Y+2
	LDD  R23,Y+3
	RET

__GETD2S0:
	LD   R26,Y
	LDD  R27,Y+1
	LDD  R24,Y+2
	LDD  R25,Y+3
	RET

__PUTD1S0:
	ST   Y,R30
	STD  Y+1,R31
	STD  Y+2,R22
	STD  Y+3,R23
	RET

__PUTPARD1:
	ST   -Y,R23
	ST   -Y,R22
	ST   -Y,R31
	ST   -Y,R30
	RET

__PUTPARD2:
	ST   -Y,R25
	ST   -Y,R24
	ST   -Y,R27
	ST   -Y,R26
	RET

__CDF2U:
	SET
	RJMP __CDF2U0
__CDF2:
	CLT
__CDF2U0:
	RCALL __SWAPD12
	RCALL __CDF1U0

__SWAPD12:
	MOV  R1,R24
	MOV  R24,R22
	MOV  R22,R1
	MOV  R1,R25
	MOV  R25,R23
	MOV  R23,R1

__SWAPW12:
	MOV  R1,R27
	MOV  R27,R31
	MOV  R31,R1

__SWAPB12:
	MOV  R1,R26
	MOV  R26,R30
	MOV  R30,R1
	RET

__SAVELOCR6:
	ST   -Y,R21
__SAVELOCR5:
	ST   -Y,R20
__SAVELOCR4:
	ST   -Y,R19
__SAVELOCR3:
	ST   -Y,R18
__SAVELOCR2:
	ST   -Y,R17
	ST   -Y,R16
	RET

__LOADLOCR6:
	LDD  R21,Y+5
__LOADLOCR5:
	LDD  R20,Y+4
__LOADLOCR4:
	LDD  R19,Y+3
__LOADLOCR3:
	LDD  R18,Y+2
__LOADLOCR2:
	LDD  R17,Y+1
	LD   R16,Y
	RET

;END OF CODE MARKER
__END_OF_CODE:
