
AVRASM ver. 2.1.30  C:\cvavr\BIN\Lab08\Debug\List\Lab08.asm Wed Dec 16 14:39:07 2020

                 
                 
                 ;CodeVisionAVR C Compiler V3.12 Advanced
                 ;(C) Copyright 1998-2014 Pavel Haiduc, HP InfoTech s.r.l.
                 ;http://www.hpinfotech.com
                 
                 ;Build configuration    : Debug
                 ;Chip type              : ATmega16
                 ;Program type           : Application
                 ;Clock frequency        : 8.000000 MHz
                 ;Memory model           : Small
                 ;Optimize for           : Size
                 ;(s)printf features     : int, width
                 ;(s)scanf features      : int, width
                 ;External RAM size      : 0
                 ;Data Stack size        : 256 byte(s)
                 ;Heap size              : 0 byte(s)
                 ;Promote 'char' to 'int': Yes
                 ;'char' is unsigned     : Yes
                 ;8 bit enums            : Yes
                 ;Global 'const' stored in FLASH: Yes
                 ;Enhanced function parameter passing: Yes
                 ;Enhanced core instructions: On
                 ;Automatic register allocation for global variables: On
                 ;Smart register allocation: On
                 
                 	#define _MODEL_SMALL_
                 
                 	#pragma AVRPART ADMIN PART_NAME ATmega16
                 	#pragma AVRPART MEMORY PROG_FLASH 16384
                 	#pragma AVRPART MEMORY EEPROM 512
                 	#pragma AVRPART MEMORY INT_SRAM SIZE 1024
                 	#pragma AVRPART MEMORY INT_SRAM START_ADDR 0x60
                 
                 	#define CALL_SUPPORTED 1
                 
                 	.LISTMAC
                 	.EQU UDRE=0x5
                 	.EQU RXC=0x7
                 	.EQU USR=0xB
                 	.EQU UDR=0xC
                 	.EQU SPSR=0xE
                 	.EQU SPDR=0xF
                 	.EQU EERE=0x0
                 	.EQU EEWE=0x1
                 	.EQU EEMWE=0x2
                 	.EQU EECR=0x1C
                 	.EQU EEDR=0x1D
                 	.EQU EEARL=0x1E
                 	.EQU EEARH=0x1F
                 	.EQU WDTCR=0x21
                 	.EQU MCUCR=0x35
                 	.EQU GICR=0x3B
                 	.EQU SPL=0x3D
                 	.EQU SPH=0x3E
                 	.EQU SREG=0x3F
                 
                 	.DEF R0X0=R0
                 	.DEF R0X1=R1
                 	.DEF R0X2=R2
                 	.DEF R0X3=R3
                 	.DEF R0X4=R4
                 	.DEF R0X5=R5
                 	.DEF R0X6=R6
                 	.DEF R0X7=R7
                 	.DEF R0X8=R8
                 	.DEF R0X9=R9
                 	.DEF R0XA=R10
                 	.DEF R0XB=R11
                 	.DEF R0XC=R12
                 	.DEF R0XD=R13
                 	.DEF R0XE=R14
                 	.DEF R0XF=R15
                 	.DEF R0X10=R16
                 	.DEF R0X11=R17
                 	.DEF R0X12=R18
                 	.DEF R0X13=R19
                 	.DEF R0X14=R20
                 	.DEF R0X15=R21
                 	.DEF R0X16=R22
                 	.DEF R0X17=R23
                 	.DEF R0X18=R24
                 	.DEF R0X19=R25
                 	.DEF R0X1A=R26
                 	.DEF R0X1B=R27
                 	.DEF R0X1C=R28
                 	.DEF R0X1D=R29
                 	.DEF R0X1E=R30
                 	.DEF R0X1F=R31
                 
                 	.EQU __SRAM_START=0x0060
                 	.EQU __SRAM_END=0x045F
                 	.EQU __DSTACK_SIZE=0x0100
                 	.EQU __HEAP_SIZE=0x0000
                 	.EQU __CLEAR_SRAM_SIZE=__SRAM_END-__SRAM_START+1
                 
                 	.MACRO __CPD1N
                 	CPI  R30,LOW(@0)
                 	LDI  R26,HIGH(@0)
                 	CPC  R31,R26
                 	LDI  R26,BYTE3(@0)
                 	CPC  R22,R26
                 	LDI  R26,BYTE4(@0)
                 	CPC  R23,R26
                 	.ENDM
                 
                 	.MACRO __CPD2N
                 	CPI  R26,LOW(@0)
                 	LDI  R30,HIGH(@0)
                 	CPC  R27,R30
                 	LDI  R30,BYTE3(@0)
                 	CPC  R24,R30
                 	LDI  R30,BYTE4(@0)
                 	CPC  R25,R30
                 	.ENDM
                 
                 	.MACRO __CPWRR
                 	CP   R@0,R@2
                 	CPC  R@1,R@3
                 	.ENDM
                 
                 	.MACRO __CPWRN
                 	CPI  R@0,LOW(@2)
                 	LDI  R30,HIGH(@2)
                 	CPC  R@1,R30
                 	.ENDM
                 
                 	.MACRO __ADDB1MN
                 	SUBI R30,LOW(-@0-(@1))
                 	.ENDM
                 
                 	.MACRO __ADDB2MN
                 	SUBI R26,LOW(-@0-(@1))
                 	.ENDM
                 
                 	.MACRO __ADDW1MN
                 	SUBI R30,LOW(-@0-(@1))
                 	SBCI R31,HIGH(-@0-(@1))
                 	.ENDM
                 
                 	.MACRO __ADDW2MN
                 	SUBI R26,LOW(-@0-(@1))
                 	SBCI R27,HIGH(-@0-(@1))
                 	.ENDM
                 
                 	.MACRO __ADDW1FN
                 	SUBI R30,LOW(-2*@0-(@1))
                 	SBCI R31,HIGH(-2*@0-(@1))
                 	.ENDM
                 
                 	.MACRO __ADDD1FN
                 	SUBI R30,LOW(-2*@0-(@1))
                 	SBCI R31,HIGH(-2*@0-(@1))
                 	SBCI R22,BYTE3(-2*@0-(@1))
                 	.ENDM
                 
                 	.MACRO __ADDD1N
                 	SUBI R30,LOW(-@0)
                 	SBCI R31,HIGH(-@0)
                 	SBCI R22,BYTE3(-@0)
                 	SBCI R23,BYTE4(-@0)
                 	.ENDM
                 
                 	.MACRO __ADDD2N
                 	SUBI R26,LOW(-@0)
                 	SBCI R27,HIGH(-@0)
                 	SBCI R24,BYTE3(-@0)
                 	SBCI R25,BYTE4(-@0)
                 	.ENDM
                 
                 	.MACRO __SUBD1N
                 	SUBI R30,LOW(@0)
                 	SBCI R31,HIGH(@0)
                 	SBCI R22,BYTE3(@0)
                 	SBCI R23,BYTE4(@0)
                 	.ENDM
                 
                 	.MACRO __SUBD2N
                 	SUBI R26,LOW(@0)
                 	SBCI R27,HIGH(@0)
                 	SBCI R24,BYTE3(@0)
                 	SBCI R25,BYTE4(@0)
                 	.ENDM
                 
                 	.MACRO __ANDBMNN
                 	LDS  R30,@0+(@1)
                 	ANDI R30,LOW(@2)
                 	STS  @0+(@1),R30
                 	.ENDM
                 
                 	.MACRO __ANDWMNN
                 	LDS  R30,@0+(@1)
                 	ANDI R30,LOW(@2)
                 	STS  @0+(@1),R30
                 	LDS  R30,@0+(@1)+1
                 	ANDI R30,HIGH(@2)
                 	STS  @0+(@1)+1,R30
                 	.ENDM
                 
                 	.MACRO __ANDD1N
                 	ANDI R30,LOW(@0)
                 	ANDI R31,HIGH(@0)
                 	ANDI R22,BYTE3(@0)
                 	ANDI R23,BYTE4(@0)
                 	.ENDM
                 
                 	.MACRO __ANDD2N
                 	ANDI R26,LOW(@0)
                 	ANDI R27,HIGH(@0)
                 	ANDI R24,BYTE3(@0)
                 	ANDI R25,BYTE4(@0)
                 	.ENDM
                 
                 	.MACRO __ORBMNN
                 	LDS  R30,@0+(@1)
                 	ORI  R30,LOW(@2)
                 	STS  @0+(@1),R30
                 	.ENDM
                 
                 	.MACRO __ORWMNN
                 	LDS  R30,@0+(@1)
                 	ORI  R30,LOW(@2)
                 	STS  @0+(@1),R30
                 	LDS  R30,@0+(@1)+1
                 	ORI  R30,HIGH(@2)
                 	STS  @0+(@1)+1,R30
                 	.ENDM
                 
                 	.MACRO __ORD1N
                 	ORI  R30,LOW(@0)
                 	ORI  R31,HIGH(@0)
                 	ORI  R22,BYTE3(@0)
                 	ORI  R23,BYTE4(@0)
                 	.ENDM
                 
                 	.MACRO __ORD2N
                 	ORI  R26,LOW(@0)
                 	ORI  R27,HIGH(@0)
                 	ORI  R24,BYTE3(@0)
                 	ORI  R25,BYTE4(@0)
                 	.ENDM
                 
                 	.MACRO __DELAY_USB
                 	LDI  R24,LOW(@0)
                 __DELAY_USB_LOOP:
                 	DEC  R24
                 	BRNE __DELAY_USB_LOOP
                 	.ENDM
                 
                 	.MACRO __DELAY_USW
                 	LDI  R24,LOW(@0)
                 	LDI  R25,HIGH(@0)
                 __DELAY_USW_LOOP:
                 	SBIW R24,1
                 	BRNE __DELAY_USW_LOOP
                 	.ENDM
                 
                 	.MACRO __GETD1S
                 	LDD  R30,Y+@0
                 	LDD  R31,Y+@0+1
                 	LDD  R22,Y+@0+2
                 	LDD  R23,Y+@0+3
                 	.ENDM
                 
                 	.MACRO __GETD2S
                 	LDD  R26,Y+@0
                 	LDD  R27,Y+@0+1
                 	LDD  R24,Y+@0+2
                 	LDD  R25,Y+@0+3
                 	.ENDM
                 
                 	.MACRO __PUTD1S
                 	STD  Y+@0,R30
                 	STD  Y+@0+1,R31
                 	STD  Y+@0+2,R22
                 	STD  Y+@0+3,R23
                 	.ENDM
                 
                 	.MACRO __PUTD2S
                 	STD  Y+@0,R26
                 	STD  Y+@0+1,R27
                 	STD  Y+@0+2,R24
                 	STD  Y+@0+3,R25
                 	.ENDM
                 
                 	.MACRO __PUTDZ2
                 	STD  Z+@0,R26
                 	STD  Z+@0+1,R27
                 	STD  Z+@0+2,R24
                 	STD  Z+@0+3,R25
                 	.ENDM
                 
                 	.MACRO __CLRD1S
                 	STD  Y+@0,R30
                 	STD  Y+@0+1,R30
                 	STD  Y+@0+2,R30
                 	STD  Y+@0+3,R30
                 	.ENDM
                 
                 	.MACRO __POINTB1MN
                 	LDI  R30,LOW(@0+(@1))
                 	.ENDM
                 
                 	.MACRO __POINTW1MN
                 	LDI  R30,LOW(@0+(@1))
                 	LDI  R31,HIGH(@0+(@1))
                 	.ENDM
                 
                 	.MACRO __POINTD1M
                 	LDI  R30,LOW(@0)
                 	LDI  R31,HIGH(@0)
                 	LDI  R22,BYTE3(@0)
                 	LDI  R23,BYTE4(@0)
                 	.ENDM
                 
                 	.MACRO __POINTW1FN
                 	LDI  R30,LOW(2*@0+(@1))
                 	LDI  R31,HIGH(2*@0+(@1))
                 	.ENDM
                 
                 	.MACRO __POINTD1FN
                 	LDI  R30,LOW(2*@0+(@1))
                 	LDI  R31,HIGH(2*@0+(@1))
                 	LDI  R22,BYTE3(2*@0+(@1))
                 	LDI  R23,BYTE4(2*@0+(@1))
                 	.ENDM
                 
                 	.MACRO __POINTB2MN
                 	LDI  R26,LOW(@0+(@1))
                 	.ENDM
                 
                 	.MACRO __POINTW2MN
                 	LDI  R26,LOW(@0+(@1))
                 	LDI  R27,HIGH(@0+(@1))
                 	.ENDM
                 
                 	.MACRO __POINTW2FN
                 	LDI  R26,LOW(2*@0+(@1))
                 	LDI  R27,HIGH(2*@0+(@1))
                 	.ENDM
                 
                 	.MACRO __POINTD2FN
                 	LDI  R26,LOW(2*@0+(@1))
                 	LDI  R27,HIGH(2*@0+(@1))
                 	LDI  R24,BYTE3(2*@0+(@1))
                 	LDI  R25,BYTE4(2*@0+(@1))
                 	.ENDM
                 
                 	.MACRO __POINTBRM
                 	LDI  R@0,LOW(@1)
                 	.ENDM
                 
                 	.MACRO __POINTWRM
                 	LDI  R@0,LOW(@2)
                 	LDI  R@1,HIGH(@2)
                 	.ENDM
                 
                 	.MACRO __POINTBRMN
                 	LDI  R@0,LOW(@1+(@2))
                 	.ENDM
                 
                 	.MACRO __POINTWRMN
                 	LDI  R@0,LOW(@2+(@3))
                 	LDI  R@1,HIGH(@2+(@3))
                 	.ENDM
                 
                 	.MACRO __POINTWRFN
                 	LDI  R@0,LOW(@2*2+(@3))
                 	LDI  R@1,HIGH(@2*2+(@3))
                 	.ENDM
                 
                 	.MACRO __GETD1N
                 	LDI  R30,LOW(@0)
                 	LDI  R31,HIGH(@0)
                 	LDI  R22,BYTE3(@0)
                 	LDI  R23,BYTE4(@0)
                 	.ENDM
                 
                 	.MACRO __GETD2N
                 	LDI  R26,LOW(@0)
                 	LDI  R27,HIGH(@0)
                 	LDI  R24,BYTE3(@0)
                 	LDI  R25,BYTE4(@0)
                 	.ENDM
                 
                 	.MACRO __GETB1MN
                 	LDS  R30,@0+(@1)
                 	.ENDM
                 
                 	.MACRO __GETB1HMN
                 	LDS  R31,@0+(@1)
                 	.ENDM
                 
                 	.MACRO __GETW1MN
                 	LDS  R30,@0+(@1)
                 	LDS  R31,@0+(@1)+1
                 	.ENDM
                 
                 	.MACRO __GETD1MN
                 	LDS  R30,@0+(@1)
                 	LDS  R31,@0+(@1)+1
                 	LDS  R22,@0+(@1)+2
                 	LDS  R23,@0+(@1)+3
                 	.ENDM
                 
                 	.MACRO __GETBRMN
                 	LDS  R@0,@1+(@2)
                 	.ENDM
                 
                 	.MACRO __GETWRMN
                 	LDS  R@0,@2+(@3)
                 	LDS  R@1,@2+(@3)+1
                 	.ENDM
                 
                 	.MACRO __GETWRZ
                 	LDD  R@0,Z+@2
                 	LDD  R@1,Z+@2+1
                 	.ENDM
                 
                 	.MACRO __GETD2Z
                 	LDD  R26,Z+@0
                 	LDD  R27,Z+@0+1
                 	LDD  R24,Z+@0+2
                 	LDD  R25,Z+@0+3
                 	.ENDM
                 
                 	.MACRO __GETB2MN
                 	LDS  R26,@0+(@1)
                 	.ENDM
                 
                 	.MACRO __GETW2MN
                 	LDS  R26,@0+(@1)
                 	LDS  R27,@0+(@1)+1
                 	.ENDM
                 
                 	.MACRO __GETD2MN
                 	LDS  R26,@0+(@1)
                 	LDS  R27,@0+(@1)+1
                 	LDS  R24,@0+(@1)+2
                 	LDS  R25,@0+(@1)+3
                 	.ENDM
                 
                 	.MACRO __PUTB1MN
                 	STS  @0+(@1),R30
                 	.ENDM
                 
                 	.MACRO __PUTW1MN
                 	STS  @0+(@1),R30
                 	STS  @0+(@1)+1,R31
                 	.ENDM
                 
                 	.MACRO __PUTD1MN
                 	STS  @0+(@1),R30
                 	STS  @0+(@1)+1,R31
                 	STS  @0+(@1)+2,R22
                 	STS  @0+(@1)+3,R23
                 	.ENDM
                 
                 	.MACRO __PUTB1EN
                 	LDI  R26,LOW(@0+(@1))
                 	LDI  R27,HIGH(@0+(@1))
                 	CALL __EEPROMWRB
                 	.ENDM
                 
                 	.MACRO __PUTW1EN
                 	LDI  R26,LOW(@0+(@1))
                 	LDI  R27,HIGH(@0+(@1))
                 	CALL __EEPROMWRW
                 	.ENDM
                 
                 	.MACRO __PUTD1EN
                 	LDI  R26,LOW(@0+(@1))
                 	LDI  R27,HIGH(@0+(@1))
                 	CALL __EEPROMWRD
                 	.ENDM
                 
                 	.MACRO __PUTBR0MN
                 	STS  @0+(@1),R0
                 	.ENDM
                 
                 	.MACRO __PUTBMRN
                 	STS  @0+(@1),R@2
                 	.ENDM
                 
                 	.MACRO __PUTWMRN
                 	STS  @0+(@1),R@2
                 	STS  @0+(@1)+1,R@3
                 	.ENDM
                 
                 	.MACRO __PUTBZR
                 	STD  Z+@1,R@0
                 	.ENDM
                 
                 	.MACRO __PUTWZR
                 	STD  Z+@2,R@0
                 	STD  Z+@2+1,R@1
                 	.ENDM
                 
                 	.MACRO __GETW1R
                 	MOV  R30,R@0
                 	MOV  R31,R@1
                 	.ENDM
                 
                 	.MACRO __GETW2R
                 	MOV  R26,R@0
                 	MOV  R27,R@1
                 	.ENDM
                 
                 	.MACRO __GETWRN
                 	LDI  R@0,LOW(@2)
                 	LDI  R@1,HIGH(@2)
                 	.ENDM
                 
                 	.MACRO __PUTW1R
                 	MOV  R@0,R30
                 	MOV  R@1,R31
                 	.ENDM
                 
                 	.MACRO __PUTW2R
                 	MOV  R@0,R26
                 	MOV  R@1,R27
                 	.ENDM
                 
                 	.MACRO __ADDWRN
                 	SUBI R@0,LOW(-@2)
                 	SBCI R@1,HIGH(-@2)
                 	.ENDM
                 
                 	.MACRO __ADDWRR
                 	ADD  R@0,R@2
                 	ADC  R@1,R@3
                 	.ENDM
                 
                 	.MACRO __SUBWRN
                 	SUBI R@0,LOW(@2)
                 	SBCI R@1,HIGH(@2)
                 	.ENDM
                 
                 	.MACRO __SUBWRR
                 	SUB  R@0,R@2
                 	SBC  R@1,R@3
                 	.ENDM
                 
                 	.MACRO __ANDWRN
                 	ANDI R@0,LOW(@2)
                 	ANDI R@1,HIGH(@2)
                 	.ENDM
                 
                 	.MACRO __ANDWRR
                 	AND  R@0,R@2
                 	AND  R@1,R@3
                 	.ENDM
                 
                 	.MACRO __ORWRN
                 	ORI  R@0,LOW(@2)
                 	ORI  R@1,HIGH(@2)
                 	.ENDM
                 
                 	.MACRO __ORWRR
                 	OR   R@0,R@2
                 	OR   R@1,R@3
                 	.ENDM
                 
                 	.MACRO __EORWRR
                 	EOR  R@0,R@2
                 	EOR  R@1,R@3
                 	.ENDM
                 
                 	.MACRO __GETWRS
                 	LDD  R@0,Y+@2
                 	LDD  R@1,Y+@2+1
                 	.ENDM
                 
                 	.MACRO __PUTBSR
                 	STD  Y+@1,R@0
                 	.ENDM
                 
                 	.MACRO __PUTWSR
                 	STD  Y+@2,R@0
                 	STD  Y+@2+1,R@1
                 	.ENDM
                 
                 	.MACRO __MOVEWRR
                 	MOV  R@0,R@2
                 	MOV  R@1,R@3
                 	.ENDM
                 
                 	.MACRO __INWR
                 	IN   R@0,@2
                 	IN   R@1,@2+1
                 	.ENDM
                 
                 	.MACRO __OUTWR
                 	OUT  @2+1,R@1
                 	OUT  @2,R@0
                 	.ENDM
                 
                 	.MACRO __CALL1MN
                 	LDS  R30,@0+(@1)
                 	LDS  R31,@0+(@1)+1
                 	ICALL
                 	.ENDM
                 
                 	.MACRO __CALL1FN
                 	LDI  R30,LOW(2*@0+(@1))
                 	LDI  R31,HIGH(2*@0+(@1))
                 	CALL __GETW1PF
                 	ICALL
                 	.ENDM
                 
                 	.MACRO __CALL2EN
                 	PUSH R26
                 	PUSH R27
                 	LDI  R26,LOW(@0+(@1))
                 	LDI  R27,HIGH(@0+(@1))
                 	CALL __EEPROMRDW
                 	POP  R27
                 	POP  R26
                 	ICALL
                 	.ENDM
                 
                 	.MACRO __CALL2EX
                 	SUBI R26,LOW(-@0)
                 	SBCI R27,HIGH(-@0)
                 	CALL __EEPROMRDD
                 	ICALL
                 	.ENDM
                 
                 	.MACRO __GETW1STACK
                 	IN   R30,SPL
                 	IN   R31,SPH
                 	ADIW R30,@0+1
                 	LD   R0,Z+
                 	LD   R31,Z
                 	MOV  R30,R0
                 	.ENDM
                 
                 	.MACRO __GETD1STACK
                 	IN   R30,SPL
                 	IN   R31,SPH
                 	ADIW R30,@0+1
                 	LD   R0,Z+
                 	LD   R1,Z+
                 	LD   R22,Z
                 	MOVW R30,R0
                 	.ENDM
                 
                 	.MACRO __NBST
                 	BST  R@0,@1
                 	IN   R30,SREG
                 	LDI  R31,0x40
                 	EOR  R30,R31
                 	OUT  SREG,R30
                 	.ENDM
                 
                 
                 	.MACRO __PUTB1SN
                 	LDD  R26,Y+@0
                 	LDD  R27,Y+@0+1
                 	SUBI R26,LOW(-@1)
                 	SBCI R27,HIGH(-@1)
                 	ST   X,R30
                 	.ENDM
                 
                 	.MACRO __PUTW1SN
                 	LDD  R26,Y+@0
                 	LDD  R27,Y+@0+1
                 	SUBI R26,LOW(-@1)
                 	SBCI R27,HIGH(-@1)
                 	ST   X+,R30
                 	ST   X,R31
                 	.ENDM
                 
                 	.MACRO __PUTD1SN
                 	LDD  R26,Y+@0
                 	LDD  R27,Y+@0+1
                 	SUBI R26,LOW(-@1)
                 	SBCI R27,HIGH(-@1)
                 	CALL __PUTDP1
                 	.ENDM
                 
                 	.MACRO __PUTB1SNS
                 	LDD  R26,Y+@0
                 	LDD  R27,Y+@0+1
                 	ADIW R26,@1
                 	ST   X,R30
                 	.ENDM
                 
                 	.MACRO __PUTW1SNS
                 	LDD  R26,Y+@0
                 	LDD  R27,Y+@0+1
                 	ADIW R26,@1
                 	ST   X+,R30
                 	ST   X,R31
                 	.ENDM
                 
                 	.MACRO __PUTD1SNS
                 	LDD  R26,Y+@0
                 	LDD  R27,Y+@0+1
                 	ADIW R26,@1
                 	CALL __PUTDP1
                 	.ENDM
                 
                 	.MACRO __PUTB1PMN
                 	LDS  R26,@0
                 	LDS  R27,@0+1
                 	SUBI R26,LOW(-@1)
                 	SBCI R27,HIGH(-@1)
                 	ST   X,R30
                 	.ENDM
                 
                 	.MACRO __PUTW1PMN
                 	LDS  R26,@0
                 	LDS  R27,@0+1
                 	SUBI R26,LOW(-@1)
                 	SBCI R27,HIGH(-@1)
                 	ST   X+,R30
                 	ST   X,R31
                 	.ENDM
                 
                 	.MACRO __PUTD1PMN
                 	LDS  R26,@0
                 	LDS  R27,@0+1
                 	SUBI R26,LOW(-@1)
                 	SBCI R27,HIGH(-@1)
                 	CALL __PUTDP1
                 	.ENDM
                 
                 	.MACRO __PUTB1PMNS
                 	LDS  R26,@0
                 	LDS  R27,@0+1
                 	ADIW R26,@1
                 	ST   X,R30
                 	.ENDM
                 
                 	.MACRO __PUTW1PMNS
                 	LDS  R26,@0
                 	LDS  R27,@0+1
                 	ADIW R26,@1
                 	ST   X+,R30
                 	ST   X,R31
                 	.ENDM
                 
                 	.MACRO __PUTD1PMNS
                 	LDS  R26,@0
                 	LDS  R27,@0+1
                 	ADIW R26,@1
                 	CALL __PUTDP1
                 	.ENDM
                 
                 	.MACRO __PUTB1RN
                 	MOVW R26,R@0
                 	SUBI R26,LOW(-@1)
                 	SBCI R27,HIGH(-@1)
                 	ST   X,R30
                 	.ENDM
                 
                 	.MACRO __PUTW1RN
                 	MOVW R26,R@0
                 	SUBI R26,LOW(-@1)
                 	SBCI R27,HIGH(-@1)
                 	ST   X+,R30
                 	ST   X,R31
                 	.ENDM
                 
                 	.MACRO __PUTD1RN
                 	MOVW R26,R@0
                 	SUBI R26,LOW(-@1)
                 	SBCI R27,HIGH(-@1)
                 	CALL __PUTDP1
                 	.ENDM
                 
                 	.MACRO __PUTB1RNS
                 	MOVW R26,R@0
                 	ADIW R26,@1
                 	ST   X,R30
                 	.ENDM
                 
                 	.MACRO __PUTW1RNS
                 	MOVW R26,R@0
                 	ADIW R26,@1
                 	ST   X+,R30
                 	ST   X,R31
                 	.ENDM
                 
                 	.MACRO __PUTD1RNS
                 	MOVW R26,R@0
                 	ADIW R26,@1
                 	CALL __PUTDP1
                 	.ENDM
                 
                 	.MACRO __PUTB1RON
                 	MOV  R26,R@0
                 	MOV  R27,R@1
                 	SUBI R26,LOW(-@2)
                 	SBCI R27,HIGH(-@2)
                 	ST   X,R30
                 	.ENDM
                 
                 	.MACRO __PUTW1RON
                 	MOV  R26,R@0
                 	MOV  R27,R@1
                 	SUBI R26,LOW(-@2)
                 	SBCI R27,HIGH(-@2)
                 	ST   X+,R30
                 	ST   X,R31
                 	.ENDM
                 
                 	.MACRO __PUTD1RON
                 	MOV  R26,R@0
                 	MOV  R27,R@1
                 	SUBI R26,LOW(-@2)
                 	SBCI R27,HIGH(-@2)
                 	CALL __PUTDP1
                 	.ENDM
                 
                 	.MACRO __PUTB1RONS
                 	MOV  R26,R@0
                 	MOV  R27,R@1
                 	ADIW R26,@2
                 	ST   X,R30
                 	.ENDM
                 
                 	.MACRO __PUTW1RONS
                 	MOV  R26,R@0
                 	MOV  R27,R@1
                 	ADIW R26,@2
                 	ST   X+,R30
                 	ST   X,R31
                 	.ENDM
                 
                 	.MACRO __PUTD1RONS
                 	MOV  R26,R@0
                 	MOV  R27,R@1
                 	ADIW R26,@2
                 	CALL __PUTDP1
                 	.ENDM
                 
                 
                 	.MACRO __GETB1SX
                 	MOVW R30,R28
                 	SUBI R30,LOW(-@0)
                 	SBCI R31,HIGH(-@0)
                 	LD   R30,Z
                 	.ENDM
                 
                 	.MACRO __GETB1HSX
                 	MOVW R30,R28
                 	SUBI R30,LOW(-@0)
                 	SBCI R31,HIGH(-@0)
                 	LD   R31,Z
                 	.ENDM
                 
                 	.MACRO __GETW1SX
                 	MOVW R30,R28
                 	SUBI R30,LOW(-@0)
                 	SBCI R31,HIGH(-@0)
                 	LD   R0,Z+
                 	LD   R31,Z
                 	MOV  R30,R0
                 	.ENDM
                 
                 	.MACRO __GETD1SX
                 	MOVW R30,R28
                 	SUBI R30,LOW(-@0)
                 	SBCI R31,HIGH(-@0)
                 	LD   R0,Z+
                 	LD   R1,Z+
                 	LD   R22,Z+
                 	LD   R23,Z
                 	MOVW R30,R0
                 	.ENDM
                 
                 	.MACRO __GETB2SX
                 	MOVW R26,R28
                 	SUBI R26,LOW(-@0)
                 	SBCI R27,HIGH(-@0)
                 	LD   R26,X
                 	.ENDM
                 
                 	.MACRO __GETW2SX
                 	MOVW R26,R28
                 	SUBI R26,LOW(-@0)
                 	SBCI R27,HIGH(-@0)
                 	LD   R0,X+
                 	LD   R27,X
                 	MOV  R26,R0
                 	.ENDM
                 
                 	.MACRO __GETD2SX
                 	MOVW R26,R28
                 	SUBI R26,LOW(-@0)
                 	SBCI R27,HIGH(-@0)
                 	LD   R0,X+
                 	LD   R1,X+
                 	LD   R24,X+
                 	LD   R25,X
                 	MOVW R26,R0
                 	.ENDM
                 
                 	.MACRO __GETBRSX
                 	MOVW R30,R28
                 	SUBI R30,LOW(-@1)
                 	SBCI R31,HIGH(-@1)
                 	LD   R@0,Z
                 	.ENDM
                 
                 	.MACRO __GETWRSX
                 	MOVW R30,R28
                 	SUBI R30,LOW(-@2)
                 	SBCI R31,HIGH(-@2)
                 	LD   R@0,Z+
                 	LD   R@1,Z
                 	.ENDM
                 
                 	.MACRO __GETBRSX2
                 	MOVW R26,R28
                 	SUBI R26,LOW(-@1)
                 	SBCI R27,HIGH(-@1)
                 	LD   R@0,X
                 	.ENDM
                 
                 	.MACRO __GETWRSX2
                 	MOVW R26,R28
                 	SUBI R26,LOW(-@2)
                 	SBCI R27,HIGH(-@2)
                 	LD   R@0,X+
                 	LD   R@1,X
                 	.ENDM
                 
                 	.MACRO __LSLW8SX
                 	MOVW R30,R28
                 	SUBI R30,LOW(-@0)
                 	SBCI R31,HIGH(-@0)
                 	LD   R31,Z
                 	CLR  R30
                 	.ENDM
                 
                 	.MACRO __PUTB1SX
                 	MOVW R26,R28
                 	SUBI R26,LOW(-@0)
                 	SBCI R27,HIGH(-@0)
                 	ST   X,R30
                 	.ENDM
                 
                 	.MACRO __PUTW1SX
                 	MOVW R26,R28
                 	SUBI R26,LOW(-@0)
                 	SBCI R27,HIGH(-@0)
                 	ST   X+,R30
                 	ST   X,R31
                 	.ENDM
                 
                 	.MACRO __PUTD1SX
                 	MOVW R26,R28
                 	SUBI R26,LOW(-@0)
                 	SBCI R27,HIGH(-@0)
                 	ST   X+,R30
                 	ST   X+,R31
                 	ST   X+,R22
                 	ST   X,R23
                 	.ENDM
                 
                 	.MACRO __CLRW1SX
                 	MOVW R26,R28
                 	SUBI R26,LOW(-@0)
                 	SBCI R27,HIGH(-@0)
                 	ST   X+,R30
                 	ST   X,R30
                 	.ENDM
                 
                 	.MACRO __CLRD1SX
                 	MOVW R26,R28
                 	SUBI R26,LOW(-@0)
                 	SBCI R27,HIGH(-@0)
                 	ST   X+,R30
                 	ST   X+,R30
                 	ST   X+,R30
                 	ST   X,R30
                 	.ENDM
                 
                 	.MACRO __PUTB2SX
                 	MOVW R30,R28
                 	SUBI R30,LOW(-@0)
                 	SBCI R31,HIGH(-@0)
                 	ST   Z,R26
                 	.ENDM
                 
                 	.MACRO __PUTW2SX
                 	MOVW R30,R28
                 	SUBI R30,LOW(-@0)
                 	SBCI R31,HIGH(-@0)
                 	ST   Z+,R26
                 	ST   Z,R27
                 	.ENDM
                 
                 	.MACRO __PUTD2SX
                 	MOVW R30,R28
                 	SUBI R30,LOW(-@0)
                 	SBCI R31,HIGH(-@0)
                 	ST   Z+,R26
                 	ST   Z+,R27
                 	ST   Z+,R24
                 	ST   Z,R25
                 	.ENDM
                 
                 	.MACRO __PUTBSRX
                 	MOVW R30,R28
                 	SUBI R30,LOW(-@1)
                 	SBCI R31,HIGH(-@1)
                 	ST   Z,R@0
                 	.ENDM
                 
                 	.MACRO __PUTWSRX
                 	MOVW R30,R28
                 	SUBI R30,LOW(-@2)
                 	SBCI R31,HIGH(-@2)
                 	ST   Z+,R@0
                 	ST   Z,R@1
                 	.ENDM
                 
                 	.MACRO __PUTB1SNX
                 	MOVW R26,R28
                 	SUBI R26,LOW(-@0)
                 	SBCI R27,HIGH(-@0)
                 	LD   R0,X+
                 	LD   R27,X
                 	MOV  R26,R0
                 	SUBI R26,LOW(-@1)
                 	SBCI R27,HIGH(-@1)
                 	ST   X,R30
                 	.ENDM
                 
                 	.MACRO __PUTW1SNX
                 	MOVW R26,R28
                 	SUBI R26,LOW(-@0)
                 	SBCI R27,HIGH(-@0)
                 	LD   R0,X+
                 	LD   R27,X
                 	MOV  R26,R0
                 	SUBI R26,LOW(-@1)
                 	SBCI R27,HIGH(-@1)
                 	ST   X+,R30
                 	ST   X,R31
                 	.ENDM
                 
                 	.MACRO __PUTD1SNX
                 	MOVW R26,R28
                 	SUBI R26,LOW(-@0)
                 	SBCI R27,HIGH(-@0)
                 	LD   R0,X+
                 	LD   R27,X
                 	MOV  R26,R0
                 	SUBI R26,LOW(-@1)
                 	SBCI R27,HIGH(-@1)
                 	ST   X+,R30
                 	ST   X+,R31
                 	ST   X+,R22
                 	ST   X,R23
                 	.ENDM
                 
                 	.MACRO __MULBRR
                 	MULS R@0,R@1
                 	MOVW R30,R0
                 	.ENDM
                 
                 	.MACRO __MULBRRU
                 	MUL  R@0,R@1
                 	MOVW R30,R0
                 	.ENDM
                 
                 	.MACRO __MULBRR0
                 	MULS R@0,R@1
                 	.ENDM
                 
                 	.MACRO __MULBRRU0
                 	MUL  R@0,R@1
                 	.ENDM
                 
                 	.MACRO __MULBNWRU
                 	LDI  R26,@2
                 	MUL  R26,R@0
                 	MOVW R30,R0
                 	MUL  R26,R@1
                 	ADD  R31,R0
                 	.ENDM
                 
                 	.CSEG
                 	.ORG 0x00
                 
                 ;START OF CODE MARKER
                 __START_OF_CODE:
                 
                 ;INTERRUPT VECTORS
000000 940c 0439 	JMP  __RESET
000002 940c 0000 	JMP  0x00
000004 940c 0000 	JMP  0x00
000006 940c 0000 	JMP  0x00
000008 940c 0000 	JMP  0x00
00000a 940c 0000 	JMP  0x00
00000c 940c 0000 	JMP  0x00
00000e 940c 0000 	JMP  0x00
000010 940c 0466 	JMP  _timer1_ovf_isr
000012 940c 0000 	JMP  0x00
000014 940c 0000 	JMP  0x00
000016 940c 0000 	JMP  0x00
000018 940c 0000 	JMP  0x00
00001a 940c 0000 	JMP  0x00
00001c 940c 0000 	JMP  0x00
00001e 940c 0000 	JMP  0x00
000020 940c 0000 	JMP  0x00
000022 940c 0000 	JMP  0x00
000024 940c 0000 	JMP  0x00
000026 940c 0000 	JMP  0x00
000028 940c 0000 	JMP  0x00
                 
                 _font5x7:
00002a 0705
00002b 6020
00002c 0000
00002d 0000      	.DB  0x5,0x7,0x20,0x60,0x0,0x0,0x0,0x0
00002e 0000
00002f 5f00
000030 0000
000031 0700      	.DB  0x0,0x0,0x0,0x5F,0x0,0x0,0x0,0x7
000032 0700
000033 1400
000034 147f
000035 147f      	.DB  0x0,0x7,0x0,0x14,0x7F,0x14,0x7F,0x14
000036 2a24
000037 2a7f
000038 2312
000039 0813      	.DB  0x24,0x2A,0x7F,0x2A,0x12,0x23,0x13,0x8
00003a 6264
00003b 4936
00003c 2255
00003d 0050      	.DB  0x64,0x62,0x36,0x49,0x55,0x22,0x50,0x0
00003e 0305
00003f 0000
000040 1c00
000041 4122      	.DB  0x5,0x3,0x0,0x0,0x0,0x1C,0x22,0x41
000042 0000
000043 2241
000044 001c
000045 2a08      	.DB  0x0,0x0,0x41,0x22,0x1C,0x0,0x8,0x2A
000046 2a1c
000047 0808
000048 3e08
000049 0808      	.DB  0x1C,0x2A,0x8,0x8,0x8,0x3E,0x8,0x8
00004a 5000
00004b 0030
00004c 0800
00004d 0808      	.DB  0x0,0x50,0x30,0x0,0x0,0x8,0x8,0x8
00004e 0808
00004f 3000
000050 0030
000051 2000      	.DB  0x8,0x8,0x0,0x30,0x30,0x0,0x0,0x20
000052 0810
000053 0204
000054 513e
000055 4549      	.DB  0x10,0x8,0x4,0x2,0x3E,0x51,0x49,0x45
000056 003e
000057 7f42
000058 0040
000059 6142      	.DB  0x3E,0x0,0x42,0x7F,0x40,0x0,0x42,0x61
00005a 4951
00005b 2146
00005c 4541
00005d 314b      	.DB  0x51,0x49,0x46,0x21,0x41,0x45,0x4B,0x31
00005e 1418
00005f 7f12
000060 2710
000061 4545      	.DB  0x18,0x14,0x12,0x7F,0x10,0x27,0x45,0x45
000062 3945
000063 4a3c
000064 4949
000065 0130      	.DB  0x45,0x39,0x3C,0x4A,0x49,0x49,0x30,0x1
000066 0971
000067 0305
000068 4936
000069 4949      	.DB  0x71,0x9,0x5,0x3,0x36,0x49,0x49,0x49
00006a 0636
00006b 4949
00006c 1e29
00006d 3600      	.DB  0x36,0x6,0x49,0x49,0x29,0x1E,0x0,0x36
00006e 0036
00006f 0000
000070 3656
000071 0000      	.DB  0x36,0x0,0x0,0x0,0x56,0x36,0x0,0x0
000072 0800
000073 2214
000074 1441
000075 1414      	.DB  0x0,0x8,0x14,0x22,0x41,0x14,0x14,0x14
000076 1414
000077 2241
000078 0814
000079 0200      	.DB  0x14,0x14,0x41,0x22,0x14,0x8,0x0,0x2
00007a 5101
00007b 0609
00007c 4932
00007d 4179      	.DB  0x1,0x51,0x9,0x6,0x32,0x49,0x79,0x41
00007e 7e3e
00007f 1111
000080 7e11
000081 497f      	.DB  0x3E,0x7E,0x11,0x11,0x11,0x7E,0x7F,0x49
000082 4949
000083 3e36
000084 4141
000085 2241      	.DB  0x49,0x49,0x36,0x3E,0x41,0x41,0x41,0x22
000086 417f
000087 2241
000088 7f1c
000089 4949      	.DB  0x7F,0x41,0x41,0x22,0x1C,0x7F,0x49,0x49
00008a 4149
00008b 097f
00008c 0109
00008d 3e01      	.DB  0x49,0x41,0x7F,0x9,0x9,0x1,0x1,0x3E
00008e 4141
00008f 3251
000090 087f
000091 0808      	.DB  0x41,0x41,0x51,0x32,0x7F,0x8,0x8,0x8
000092 007f
000093 7f41
000094 0041
000095 4020      	.DB  0x7F,0x0,0x41,0x7F,0x41,0x0,0x20,0x40
000096 3f41
000097 7f01
000098 1408
000099 4122      	.DB  0x41,0x3F,0x1,0x7F,0x8,0x14,0x22,0x41
00009a 407f
00009b 4040
00009c 7f40
00009d 0402      	.DB  0x7F,0x40,0x40,0x40,0x40,0x7F,0x2,0x4
00009e 7f02
00009f 047f
0000a0 1008
0000a1 3e7f      	.DB  0x2,0x7F,0x7F,0x4,0x8,0x10,0x7F,0x3E
0000a2 4141
0000a3 3e41
0000a4 097f
0000a5 0909      	.DB  0x41,0x41,0x41,0x3E,0x7F,0x9,0x9,0x9
0000a6 3e06
0000a7 5141
0000a8 5e21
0000a9 097f      	.DB  0x6,0x3E,0x41,0x51,0x21,0x5E,0x7F,0x9
0000aa 2919
0000ab 4646
0000ac 4949
0000ad 3149      	.DB  0x19,0x29,0x46,0x46,0x49,0x49,0x49,0x31
0000ae 0101
0000af 017f
0000b0 3f01
0000b1 4040      	.DB  0x1,0x1,0x7F,0x1,0x1,0x3F,0x40,0x40
0000b2 3f40
0000b3 201f
0000b4 2040
0000b5 7f1f      	.DB  0x40,0x3F,0x1F,0x20,0x40,0x20,0x1F,0x7F
0000b6 1820
0000b7 7f20
0000b8 1463
0000b9 1408      	.DB  0x20,0x18,0x20,0x7F,0x63,0x14,0x8,0x14
0000ba 0363
0000bb 7804
0000bc 0304
0000bd 5161      	.DB  0x63,0x3,0x4,0x78,0x4,0x3,0x61,0x51
0000be 4549
0000bf 0043
0000c0 7f00
0000c1 4141      	.DB  0x49,0x45,0x43,0x0,0x0,0x7F,0x41,0x41
0000c2 0402
0000c3 1008
0000c4 4120
0000c5 7f41      	.DB  0x2,0x4,0x8,0x10,0x20,0x41,0x41,0x7F
0000c6 0000
0000c7 0204
0000c8 0201
0000c9 4004      	.DB  0x0,0x0,0x4,0x2,0x1,0x2,0x4,0x40
0000ca 4040
0000cb 4040
0000cc 0100
0000cd 0402      	.DB  0x40,0x40,0x40,0x40,0x0,0x1,0x2,0x4
0000ce 2000
0000cf 5454
0000d0 7854
0000d1 487f      	.DB  0x0,0x20,0x54,0x54,0x54,0x78,0x7F,0x48
0000d2 4444
0000d3 3838
0000d4 4444
0000d5 2044      	.DB  0x44,0x44,0x38,0x38,0x44,0x44,0x44,0x20
0000d6 4438
0000d7 4844
0000d8 387f
0000d9 5454      	.DB  0x38,0x44,0x44,0x48,0x7F,0x38,0x54,0x54
0000da 1854
0000db 7e08
0000dc 0109
0000dd 0802      	.DB  0x54,0x18,0x8,0x7E,0x9,0x1,0x2,0x8
0000de 5414
0000df 3c54
0000e0 087f
0000e1 0404      	.DB  0x14,0x54,0x54,0x3C,0x7F,0x8,0x4,0x4
0000e2 0078
0000e3 7d44
0000e4 0040
0000e5 4020      	.DB  0x78,0x0,0x44,0x7D,0x40,0x0,0x20,0x40
0000e6 3d44
0000e7 0000
0000e8 107f
0000e9 4428      	.DB  0x44,0x3D,0x0,0x0,0x7F,0x10,0x28,0x44
0000ea 4100
0000eb 407f
0000ec 7c00
0000ed 1804      	.DB  0x0,0x41,0x7F,0x40,0x0,0x7C,0x4,0x18
0000ee 7804
0000ef 087c
0000f0 0404
0000f1 3878      	.DB  0x4,0x78,0x7C,0x8,0x4,0x4,0x78,0x38
0000f2 4444
0000f3 3844
0000f4 147c
0000f5 1414      	.DB  0x44,0x44,0x44,0x38,0x7C,0x14,0x14,0x14
0000f6 0808
0000f7 1414
0000f8 7c18
0000f9 087c      	.DB  0x8,0x8,0x14,0x14,0x18,0x7C,0x7C,0x8
0000fa 0404
0000fb 4808
0000fc 5454
0000fd 2054      	.DB  0x4,0x4,0x8,0x48,0x54,0x54,0x54,0x20
0000fe 3f04
0000ff 4044
000100 3c20
000101 4040      	.DB  0x4,0x3F,0x44,0x40,0x20,0x3C,0x40,0x40
000102 7c20
000103 201c
000104 2040
000105 3c1c      	.DB  0x20,0x7C,0x1C,0x20,0x40,0x20,0x1C,0x3C
000106 3040
000107 3c40
000108 2844
000109 2810      	.DB  0x40,0x30,0x40,0x3C,0x44,0x28,0x10,0x28
00010a 0c44
00010b 5050
00010c 3c50
00010d 6444      	.DB  0x44,0xC,0x50,0x50,0x50,0x3C,0x44,0x64
00010e 4c54
00010f 0044
000110 3608
000111 0041      	.DB  0x54,0x4C,0x44,0x0,0x8,0x36,0x41,0x0
000112 0000
000113 007f
000114 0000
000115 3641      	.DB  0x0,0x0,0x7F,0x0,0x0,0x0,0x41,0x36
000116 0008
000117 0102
000118 0402
000119 7f02      	.DB  0x8,0x0,0x2,0x1,0x2,0x4,0x2,0x7F
00011a 4141
00011b 7f41      	.DB  0x41,0x41,0x41,0x7F
                 _ds:
00011c 0080
00011d 0040
00011e ffff
00011f ffff      	.DB  0x80,0x0,0x40,0x0,0xFF,0xFF,0xFF,0xFF
000120 ffff
000121 ffff
000122 ffff
000123 ffff      	.DB  0xFF,0xFF,0xFF,0xFF,0xFF,0xFF,0xFF,0xFF
000124 ffff
000125 ffff
000126 ffff
000127 ffff      	.DB  0xFF,0xFF,0xFF,0xFF,0xFF,0xFF,0xFF,0xFF
000128 ffff
000129 ffff
00012a ffff
00012b ffff      	.DB  0xFF,0xFF,0xFF,0xFF,0xFF,0xFF,0xFF,0xFF
00012c ffff
00012d ffff
00012e ffff
00012f ffff      	.DB  0xFF,0xFF,0xFF,0xFF,0xFF,0xFF,0xFF,0xFF
000130 ffff
000131 ffff
000132 ffff
000133 ffff      	.DB  0xFF,0xFF,0xFF,0xFF,0xFF,0xFF,0xFF,0xFF
000134 ffff
000135 ffff
000136 ffff
000137 ffff      	.DB  0xFF,0xFF,0xFF,0xFF,0xFF,0xFF,0xFF,0xFF
000138 ffff
000139 ffff
00013a ffff
00013b ffff      	.DB  0xFF,0xFF,0xFF,0xFF,0xFF,0xFF,0xFF,0xFF
00013c ffff
00013d ffff
00013e ffff
00013f ffff      	.DB  0xFF,0xFF,0xFF,0xFF,0xFF,0xFF,0xFF,0xFF
000140 ffff
000141 ffff
000142 ffff
000143 ffff      	.DB  0xFF,0xFF,0xFF,0xFF,0xFF,0xFF,0xFF,0xFF
000144 ffff
000145 ffff
000146 ffff
000147 ffff      	.DB  0xFF,0xFF,0xFF,0xFF,0xFF,0xFF,0xFF,0xFF
000148 ffff
000149 ffff
00014a ffff
00014b ffff      	.DB  0xFF,0xFF,0xFF,0xFF,0xFF,0xFF,0xFF,0xFF
00014c ffff
00014d ffff
00014e ffff
00014f ffff      	.DB  0xFF,0xFF,0xFF,0xFF,0xFF,0xFF,0xFF,0xFF
000150 ffff
000151 ffff
000152 ffff
000153 ffff      	.DB  0xFF,0xFF,0xFF,0xFF,0xFF,0xFF,0xFF,0xFF
000154 ffff
000155 ffff
000156 ffff
000157 ffff      	.DB  0xFF,0xFF,0xFF,0xFF,0xFF,0xFF,0xFF,0xFF
000158 ffff
000159 ffff
00015a ffff
00015b ffff      	.DB  0xFF,0xFF,0xFF,0xFF,0xFF,0xFF,0xFF,0xFF
00015c ffff
00015d ffff
00015e ffff
00015f ffff      	.DB  0xFF,0xFF,0xFF,0xFF,0xFF,0xFF,0xFF,0xFF
000160 ffff
000161 ffff
000162 ffff
000163 ffff      	.DB  0xFF,0xFF,0xFF,0xFF,0xFF,0xFF,0xFF,0xFF
000164 ffff
000165 ffff
000166 ffff
000167 ffff      	.DB  0xFF,0xFF,0xFF,0xFF,0xFF,0xFF,0xFF,0xFF
000168 ffff
000169 ffff
00016a ffff
00016b ffff      	.DB  0xFF,0xFF,0xFF,0xFF,0xFF,0xFF,0xFF,0xFF
00016c ffff
00016d ffff
00016e ffff
00016f ffff      	.DB  0xFF,0xFF,0xFF,0xFF,0xFF,0xFF,0xFF,0xFF
000170 ffff
000171 ffff
000172 ffff
000173 ffff      	.DB  0xFF,0xFF,0xFF,0xFF,0xFF,0xFF,0xFF,0xFF
000174 ffff
000175 ffff
000176 ffff
000177 ffff      	.DB  0xFF,0xFF,0xFF,0xFF,0xFF,0xFF,0xFF,0xFF
000178 ffff
000179 ffff
00017a ffff
00017b ffff      	.DB  0xFF,0xFF,0xFF,0xFF,0xFF,0xFF,0xFF,0xFF
00017c ffff
00017d ffff
00017e ffff
00017f ffff      	.DB  0xFF,0xFF,0xFF,0xFF,0xFF,0xFF,0xFF,0xFF
000180 ffff
000181 ffff
000182 ffff
000183 ffff      	.DB  0xFF,0xFF,0xFF,0xFF,0xFF,0xFF,0xFF,0xFF
000184 ffff
000185 ffff
000186 ffff
000187 ffff      	.DB  0xFF,0xFF,0xFF,0xFF,0xFF,0xFF,0xFF,0xFF
000188 ffff
000189 ffff
00018a ffff
00018b ffff      	.DB  0xFF,0xFF,0xFF,0xFF,0xFF,0xFF,0xFF,0xFF
00018c ffff
00018d ffff
00018e ffff
00018f ffff      	.DB  0xFF,0xFF,0xFF,0xFF,0xFF,0xFF,0xFF,0xFF
000190 ffff
000191 ffff
000192 ffff
000193 ffff      	.DB  0xFF,0xFF,0xFF,0xFF,0xFF,0xFF,0xFF,0xFF
000194 ffff
000195 ffff
000196 ffff
000197 ffff      	.DB  0xFF,0xFF,0xFF,0xFF,0xFF,0xFF,0xFF,0xFF
000198 ffff
000199 ffff
00019a ffff
00019b ffff      	.DB  0xFF,0xFF,0xFF,0xFF,0xFF,0xFF,0xFF,0xFF
00019c ffff
00019d ffff
00019e ffff
00019f ffff      	.DB  0xFF,0xFF,0xFF,0xFF,0xFF,0xFF,0xFF,0xFF
0001a0 ffff
0001a1 ffff
0001a2 ffff
0001a3 ffff      	.DB  0xFF,0xFF,0xFF,0xFF,0xFF,0xFF,0xFF,0xFF
0001a4 ffff
0001a5 ffff
0001a6 ffff
0001a7 ffff      	.DB  0xFF,0xFF,0xFF,0xFF,0xFF,0xFF,0xFF,0xFF
0001a8 ffff
0001a9 ffff
0001aa ffff
0001ab ffff      	.DB  0xFF,0xFF,0xFF,0xFF,0xFF,0xFF,0xFF,0xFF
0001ac ffff
0001ad ffff
0001ae ffff
0001af ffff      	.DB  0xFF,0xFF,0xFF,0xFF,0xFF,0xFF,0xFF,0xFF
0001b0 ffff
0001b1 ffff
0001b2 ffff
0001b3 ffff      	.DB  0xFF,0xFF,0xFF,0xFF,0xFF,0xFF,0xFF,0xFF
0001b4 ffff
0001b5 ffff
0001b6 ffff
0001b7 ffff      	.DB  0xFF,0xFF,0xFF,0xFF,0xFF,0xFF,0xFF,0xFF
0001b8 ffff
0001b9 ffff
0001ba ffff
0001bb ffff      	.DB  0xFF,0xFF,0xFF,0xFF,0xFF,0xFF,0xFF,0xFF
0001bc ffff
0001bd ffff
0001be ffff
0001bf ffff      	.DB  0xFF,0xFF,0xFF,0xFF,0xFF,0xFF,0xFF,0xFF
0001c0 ffff
0001c1 ffff
0001c2 ffff
0001c3 ffff      	.DB  0xFF,0xFF,0xFF,0xFF,0xFF,0xFF,0xFF,0xFF
0001c4 ffff
0001c5 ffff
0001c6 ffff
0001c7 ffff      	.DB  0xFF,0xFF,0xFF,0xFF,0xFF,0xFF,0xFF,0xFF
0001c8 ffff
0001c9 ffff
0001ca ffff
0001cb ffff      	.DB  0xFF,0xFF,0xFF,0xFF,0xFF,0xFF,0xFF,0xFF
0001cc ffff
0001cd ffff
0001ce ffff
0001cf ffff      	.DB  0xFF,0xFF,0xFF,0xFF,0xFF,0xFF,0xFF,0xFF
0001d0 ffff
0001d1 ffff
0001d2 ffff
0001d3 ffff      	.DB  0xFF,0xFF,0xFF,0xFF,0xFF,0xFF,0xFF,0xFF
0001d4 ffff
0001d5 ffff
0001d6 ffff
0001d7 ffff      	.DB  0xFF,0xFF,0xFF,0xFF,0xFF,0xFF,0xFF,0xFF
0001d8 ffff
0001d9 ffff
0001da ffff
0001db ffff      	.DB  0xFF,0xFF,0xFF,0xFF,0xFF,0xFF,0xFF,0xFF
0001dc ffff
0001dd ffff
0001de ffff
0001df ffff      	.DB  0xFF,0xFF,0xFF,0xFF,0xFF,0xFF,0xFF,0xFF
0001e0 ffff
0001e1 ffff
0001e2 ffff
0001e3 ffff      	.DB  0xFF,0xFF,0xFF,0xFF,0xFF,0xFF,0xFF,0xFF
0001e4 ffff
0001e5 ffff
0001e6 ffff
0001e7 ffff      	.DB  0xFF,0xFF,0xFF,0xFF,0xFF,0xFF,0xFF,0xFF
0001e8 ffff
0001e9 ffff
0001ea ffff
0001eb ffff      	.DB  0xFF,0xFF,0xFF,0xFF,0xFF,0xFF,0xFF,0xFF
0001ec ffff
0001ed ffff
0001ee ffff
0001ef ffff      	.DB  0xFF,0xFF,0xFF,0xFF,0xFF,0xFF,0xFF,0xFF
0001f0 ffff
0001f1 ffff
0001f2 ffff
0001f3 ffff      	.DB  0xFF,0xFF,0xFF,0xFF,0xFF,0xFF,0xFF,0xFF
0001f4 ffff
0001f5 ffff
0001f6 ffff
0001f7 ffff      	.DB  0xFF,0xFF,0xFF,0xFF,0xFF,0xFF,0xFF,0xFF
0001f8 ffff
0001f9 ffff
0001fa ffff
0001fb 3fff      	.DB  0xFF,0xFF,0xFF,0xFF,0xFF,0xFF,0xFF,0x3F
0001fc 0f1f
0001fd 0707
0001fe 1123
0001ff 0000      	.DB  0x1F,0xF,0x7,0x7,0x23,0x11,0x0,0x0
000200 0000
000201 8301
000202 0f87
000203 1f1f      	.DB  0x0,0x0,0x1,0x83,0x87,0xF,0x1F,0x1F
000204 ff3f
000205 ffff
000206 ffff
000207 ffff      	.DB  0x3F,0xFF,0xFF,0xFF,0xFF,0xFF,0xFF,0xFF
000208 ffff
000209 ffff
00020a ffff
00020b ffff      	.DB  0xFF,0xFF,0xFF,0xFF,0xFF,0xFF,0xFF,0xFF
00020c ffff
00020d ffff
00020e ffff
00020f ffff      	.DB  0xFF,0xFF,0xFF,0xFF,0xFF,0xFF,0xFF,0xFF
000210 ffff
000211 ffff
000212 ffff
000213 ffff      	.DB  0xFF,0xFF,0xFF,0xFF,0xFF,0xFF,0xFF,0xFF
000214 ffff
000215 ffff
000216 ffff
000217 ffff      	.DB  0xFF,0xFF,0xFF,0xFF,0xFF,0xFF,0xFF,0xFF
000218 ffff
000219 ffff
00021a ffff
00021b ffff      	.DB  0xFF,0xFF,0xFF,0xFF,0xFF,0xFF,0xFF,0xFF
00021c ffff
00021d ffff
00021e ffff
00021f ffff      	.DB  0xFF,0xFF,0xFF,0xFF,0xFF,0xFF,0xFF,0xFF
000220 ffff
000221 ffff
000222 ffff
000223 ffff      	.DB  0xFF,0xFF,0xFF,0xFF,0xFF,0xFF,0xFF,0xFF
000224 ffff
000225 ffff
000226 ffff
000227 ffff      	.DB  0xFF,0xFF,0xFF,0xFF,0xFF,0xFF,0xFF,0xFF
000228 ffff
000229 ffff
00022a ffff
00022b ffff      	.DB  0xFF,0xFF,0xFF,0xFF,0xFF,0xFF,0xFF,0xFF
00022c ffff
00022d ffff
00022e ffff
00022f ffff      	.DB  0xFF,0xFF,0xFF,0xFF,0xFF,0xFF,0xFF,0xFF
000230 ffff
000231 ffff
000232 ffff
000233 ffff      	.DB  0xFF,0xFF,0xFF,0xFF,0xFF,0xFF,0xFF,0xFF
000234 ffff
000235 ffff
000236 ffff
000237 ffff      	.DB  0xFF,0xFF,0xFF,0xFF,0xFF,0xFF,0xFF,0xFF
000238 ffff
000239 ffff
00023a ffff
00023b ffff      	.DB  0xFF,0xFF,0xFF,0xFF,0xFF,0xFF,0xFF,0xFF
00023c f8fc
00023d e0f0
00023e c0e0
00023f 8080      	.DB  0xFC,0xF8,0xF0,0xE0,0xE0,0xC0,0x80,0x80
000240 0000
000241 4d68
000242 8000
000243 c0c0      	.DB  0x0,0x0,0x68,0x4D,0x0,0x80,0xC0,0xC0
000244 e0e0
000245 fbf0
000246 ffff
000247 ffff      	.DB  0xE0,0xE0,0xF0,0xFB,0xFF,0xFF,0xFF,0xFF
000248 ffff
000249 ffff
00024a ffff
00024b ffff      	.DB  0xFF,0xFF,0xFF,0xFF,0xFF,0xFF,0xFF,0xFF
00024c ffff
00024d ffff
00024e ffff
00024f ffff      	.DB  0xFF,0xFF,0xFF,0xFF,0xFF,0xFF,0xFF,0xFF
000250 ffff
000251 ffff
000252 ffff
000253 ffff      	.DB  0xFF,0xFF,0xFF,0xFF,0xFF,0xFF,0xFF,0xFF
000254 ffff
000255 ffff
000256 ffff
000257 ffff      	.DB  0xFF,0xFF,0xFF,0xFF,0xFF,0xFF,0xFF,0xFF
000258 ffff
000259 ffff
00025a ffff
00025b ffff      	.DB  0xFF,0xFF,0xFF,0xFF,0xFF,0xFF,0xFF,0xFF
00025c ffff
00025d ffff
00025e ffff
00025f ffff      	.DB  0xFF,0xFF,0xFF,0xFF,0xFF,0xFF,0xFF,0xFF
000260 ffff
000261 ffff
000262 ffff
000263 ffff      	.DB  0xFF,0xFF,0xFF,0xFF,0xFF,0xFF,0xFF,0xFF
000264 ffff
000265 ffff
000266 ffff
000267 ffff      	.DB  0xFF,0xFF,0xFF,0xFF,0xFF,0xFF,0xFF,0xFF
000268 ffff
000269 ffff
00026a ffff
00026b ffff      	.DB  0xFF,0xFF,0xFF,0xFF,0xFF,0xFF,0xFF,0xFF
00026c ffff
00026d ffff
00026e ffff
00026f ffff      	.DB  0xFF,0xFF,0xFF,0xFF,0xFF,0xFF,0xFF,0xFF
000270 ffff
000271 ffff
000272 ffff
000273 ffff      	.DB  0xFF,0xFF,0xFF,0xFF,0xFF,0xFF,0xFF,0xFF
000274 ffff
000275 ffff
000276 ffff
000277 ffff      	.DB  0xFF,0xFF,0xFF,0xFF,0xFF,0xFF,0xFF,0xFF
000278 ffff
000279 ffff
00027a ffff
00027b ffff      	.DB  0xFF,0xFF,0xFF,0xFF,0xFF,0xFF,0xFF,0xFF
00027c ffff
00027d ffff
00027e ffff
00027f ffff      	.DB  0xFF,0xFF,0xFF,0xFF,0xFF,0xFF,0xFF,0xFF
000280 fefe
000281 ffff
000282 ffff
000283 ffff      	.DB  0xFE,0xFE,0xFF,0xFF,0xFF,0xFF,0xFF,0xFF
000284 ffff
000285 ffff
000286 ffff
000287 ffff      	.DB  0xFF,0xFF,0xFF,0xFF,0xFF,0xFF,0xFF,0xFF
000288 ffff
000289 ffff
00028a ffff
00028b ffff      	.DB  0xFF,0xFF,0xFF,0xFF,0xFF,0xFF,0xFF,0xFF
00028c ffff
00028d ffff
00028e ffff
00028f ffff      	.DB  0xFF,0xFF,0xFF,0xFF,0xFF,0xFF,0xFF,0xFF
000290 ffff
000291 ffff
000292 ffff
000293 ffff      	.DB  0xFF,0xFF,0xFF,0xFF,0xFF,0xFF,0xFF,0xFF
000294 ffff
000295 ffff
000296 ffff
000297 ffff      	.DB  0xFF,0xFF,0xFF,0xFF,0xFF,0xFF,0xFF,0xFF
000298 ffff
000299 ffff
00029a ffff
00029b ffff      	.DB  0xFF,0xFF,0xFF,0xFF,0xFF,0xFF,0xFF,0xFF
00029c ffff
00029d ffff
00029e ffff
00029f ffff      	.DB  0xFF,0xFF,0xFF,0xFF,0xFF,0xFF,0xFF,0xFF
0002a0 ffff
0002a1 ffff
0002a2 ffff
0002a3 ffff      	.DB  0xFF,0xFF,0xFF,0xFF,0xFF,0xFF,0xFF,0xFF
0002a4 ffff
0002a5 ffff
0002a6 ffff
0002a7 ffff      	.DB  0xFF,0xFF,0xFF,0xFF,0xFF,0xFF,0xFF,0xFF
0002a8 ffff
0002a9 ffff
0002aa ffff
0002ab ffff      	.DB  0xFF,0xFF,0xFF,0xFF,0xFF,0xFF,0xFF,0xFF
0002ac ffff
0002ad ffff
0002ae ffff
0002af ffff      	.DB  0xFF,0xFF,0xFF,0xFF,0xFF,0xFF,0xFF,0xFF
0002b0 ffff
0002b1 ffff
0002b2 ffff
0002b3 ffff      	.DB  0xFF,0xFF,0xFF,0xFF,0xFF,0xFF,0xFF,0xFF
0002b4 ffff
0002b5 ffff
0002b6 ffff
0002b7 ffff      	.DB  0xFF,0xFF,0xFF,0xFF,0xFF,0xFF,0xFF,0xFF
0002b8 ffff
0002b9 ffff
0002ba ffff
0002bb ffff      	.DB  0xFF,0xFF,0xFF,0xFF,0xFF,0xFF,0xFF,0xFF
0002bc ffff
0002bd ffff
0002be ffff
0002bf ffff      	.DB  0xFF,0xFF,0xFF,0xFF,0xFF,0xFF,0xFF,0xFF
0002c0 ffff
0002c1 ffff
0002c2 ffff
0002c3 ffff      	.DB  0xFF,0xFF,0xFF,0xFF,0xFF,0xFF,0xFF,0xFF
0002c4 ffff
0002c5 ffff
0002c6 ffff
0002c7 ffff      	.DB  0xFF,0xFF,0xFF,0xFF,0xFF,0xFF,0xFF,0xFF
0002c8 ffff
0002c9 ffff
0002ca ffff
0002cb ffff      	.DB  0xFF,0xFF,0xFF,0xFF,0xFF,0xFF,0xFF,0xFF
0002cc ffff
0002cd ffff
0002ce ffff
0002cf ffff      	.DB  0xFF,0xFF,0xFF,0xFF,0xFF,0xFF,0xFF,0xFF
0002d0 ffff
0002d1 ffff
0002d2 ffff
0002d3 ffff      	.DB  0xFF,0xFF,0xFF,0xFF,0xFF,0xFF,0xFF,0xFF
0002d4 ffff
0002d5 ffff
0002d6 ffff
0002d7 ffff      	.DB  0xFF,0xFF,0xFF,0xFF,0xFF,0xFF,0xFF,0xFF
0002d8 ffff
0002d9 ffff
0002da ffff
0002db ffff      	.DB  0xFF,0xFF,0xFF,0xFF,0xFF,0xFF,0xFF,0xFF
0002dc ffff
0002dd ffff
0002de ffff
0002df ffff      	.DB  0xFF,0xFF,0xFF,0xFF,0xFF,0xFF,0xFF,0xFF
0002e0 ffff
0002e1 ffff
0002e2 ffff
0002e3 ffff      	.DB  0xFF,0xFF,0xFF,0xFF,0xFF,0xFF,0xFF,0xFF
0002e4 ffff
0002e5 ffff
0002e6 ffff
0002e7 ffff      	.DB  0xFF,0xFF,0xFF,0xFF,0xFF,0xFF,0xFF,0xFF
0002e8 ffff
0002e9 ffff
0002ea ffff
0002eb ffff      	.DB  0xFF,0xFF,0xFF,0xFF,0xFF,0xFF,0xFF,0xFF
0002ec ffff
0002ed ffff
0002ee ffff
0002ef ffff      	.DB  0xFF,0xFF,0xFF,0xFF,0xFF,0xFF,0xFF,0xFF
0002f0 ffff
0002f1 ffff
0002f2 ffff
0002f3 ffff      	.DB  0xFF,0xFF,0xFF,0xFF,0xFF,0xFF,0xFF,0xFF
0002f4 ffff
0002f5 ffff
0002f6 ffff
0002f7 ffff      	.DB  0xFF,0xFF,0xFF,0xFF,0xFF,0xFF,0xFF,0xFF
0002f8 ffff
0002f9 ffff
0002fa ffff
0002fb ffff      	.DB  0xFF,0xFF,0xFF,0xFF,0xFF,0xFF,0xFF,0xFF
0002fc ffff
0002fd ffff
0002fe ffff
0002ff ffff      	.DB  0xFF,0xFF,0xFF,0xFF,0xFF,0xFF,0xFF,0xFF
000300 ffff
000301 ffff
000302 ffff
000303 ffff      	.DB  0xFF,0xFF,0xFF,0xFF,0xFF,0xFF,0xFF,0xFF
000304 ffff
000305 ffff
000306 ffff
000307 ffff      	.DB  0xFF,0xFF,0xFF,0xFF,0xFF,0xFF,0xFF,0xFF
000308 ffff
000309 ffff
00030a ffff
00030b ffff      	.DB  0xFF,0xFF,0xFF,0xFF,0xFF,0xFF,0xFF,0xFF
00030c ffff
00030d ffff
00030e ffff
00030f ffff      	.DB  0xFF,0xFF,0xFF,0xFF,0xFF,0xFF,0xFF,0xFF
000310 ffff
000311 ffff
000312 ffff
000313 ffff      	.DB  0xFF,0xFF,0xFF,0xFF,0xFF,0xFF,0xFF,0xFF
000314 ffff
000315 ffff
000316 ffff
000317 ffff      	.DB  0xFF,0xFF,0xFF,0xFF,0xFF,0xFF,0xFF,0xFF
000318 ffff
000319 ffff
00031a ffff
00031b ffff      	.DB  0xFF,0xFF,0xFF,0xFF,0xFF,0xFF,0xFF,0xFF
00031c ffff
00031d ffff      	.DB  0xFF,0xFF,0xFF,0xFF
                 _AR16x8:
00031e 0000
00031f 00fc
000320 00fe
000321 0013      	.DB  0x0,0x0,0xFC,0x0,0xFE,0x0,0x13,0x0
000322 0013
000323 0013
000324 00fe
000325 00fc      	.DB  0x13,0x0,0x13,0x0,0xFE,0x0,0xFC,0x0
000326 0000
000327 00ff
000328 00ff
000329 0039      	.DB  0x0,0x0,0xFF,0x0,0xFF,0x0,0x39,0x0
00032a 0069
00032b 00cf
00032c 0086
00032d 0000      	.DB  0x69,0x0,0xCF,0x0,0x86,0x0,0x0,0x0
00032e 00fc
00032f 00fe
000330 0013
000331 0013      	.DB  0xFC,0x0,0xFE,0x0,0x13,0x0,0x13,0x0
000332 0013
000333 00fe
000334 00fc
000335 0000      	.DB  0x13,0x0,0xFE,0x0,0xFC,0x0,0x0,0x0
000336 00ff
000337 00ff
000338 0039
000339 0069      	.DB  0xFF,0x0,0xFF,0x0,0x39,0x0,0x69,0x0
00033a 00cf
00033b 0086
00033c 0000
00033d 0000      	.DB  0xCF,0x0,0x86,0x0,0x0,0x0,0x0,0x0
00033e 00fe
00033f 0013
000340 0013
000341 0013      	.DB  0xFE,0x0,0x13,0x0,0x13,0x0,0x13,0x0
000342 00fe
000343 00fc
000344 0000
000345 00ff      	.DB  0xFE,0x0,0xFC,0x0,0x0,0x0,0xFF,0x0
000346 00ff
000347 0039
000348 0069
000349 00cf      	.DB  0xFF,0x0,0x39,0x0,0x69,0x0,0xCF,0x0
00034a 0086
00034b 0000
00034c 0000
00034d 00fc      	.DB  0x86,0x0,0x0,0x0,0x0,0x0,0xFC,0x0
00034e 0013
00034f 0013
000350 0013
000351 00fe      	.DB  0x13,0x0,0x13,0x0,0x13,0x0,0xFE,0x0
000352 00fc
000353 0000
000354 00ff
000355 00ff      	.DB  0xFC,0x0,0x0,0x0,0xFF,0x0,0xFF,0x0
000356 0039
000357 0069
000358 00cf
000359 0086      	.DB  0x39,0x0,0x69,0x0,0xCF,0x0,0x86,0x0
00035a 0000
00035b 0000
00035c 00fc
00035d 00fe      	.DB  0x0,0x0,0x0,0x0,0xFC,0x0,0xFE,0x0
00035e 0013
00035f 0013
000360 00fe
000361 00fc      	.DB  0x13,0x0,0x13,0x0,0xFE,0x0,0xFC,0x0
000362 0000
000363 00ff
000364 00ff
000365 0039      	.DB  0x0,0x0,0xFF,0x0,0xFF,0x0,0x39,0x0
000366 0069
000367 00cf
000368 0086
000369 0000      	.DB  0x69,0x0,0xCF,0x0,0x86,0x0,0x0,0x0
00036a 0000
00036b 00fc
00036c 00fe
00036d 0013      	.DB  0x0,0x0,0xFC,0x0,0xFE,0x0,0x13,0x0
00036e 0013
00036f 00fe
000370 00fc
000371 0000      	.DB  0x13,0x0,0xFE,0x0,0xFC,0x0,0x0,0x0
000372 00ff
000373 00ff
000374 0039
000375 0069      	.DB  0xFF,0x0,0xFF,0x0,0x39,0x0,0x69,0x0
000376 00cf
000377 0086
000378 0000
000379 0000      	.DB  0xCF,0x0,0x86,0x0,0x0,0x0,0x0,0x0
00037a 00fc
00037b 00fe
00037c 0013
00037d 0013      	.DB  0xFC,0x0,0xFE,0x0,0x13,0x0,0x13,0x0
00037e 00fe
00037f 00fc
000380 0000
000381 00ff      	.DB  0xFE,0x0,0xFC,0x0,0x0,0x0,0xFF,0x0
000382 00ff
000383 0039
000384 0069
000385 00cf      	.DB  0xFF,0x0,0x39,0x0,0x69,0x0,0xCF,0x0
000386 0086
000387 0000
000388 0000
000389 00fc      	.DB  0x86,0x0,0x0,0x0,0x0,0x0,0xFC,0x0
00038a 00fe
00038b 0013
00038c 0013
00038d 0013      	.DB  0xFE,0x0,0x13,0x0,0x13,0x0,0x13,0x0
00038e 00fc
00038f 0000
000390 00ff
000391 00ff      	.DB  0xFC,0x0,0x0,0x0,0xFF,0x0,0xFF,0x0
000392 0039
000393 0069
000394 00cf
000395 0086      	.DB  0x39,0x0,0x69,0x0,0xCF,0x0,0x86,0x0
000396 0000
000397 0000
000398 00fc
000399 00fe      	.DB  0x0,0x0,0x0,0x0,0xFC,0x0,0xFE,0x0
00039a 0013
00039b 0013
00039c 0013
00039d 00fe      	.DB  0x13,0x0,0x13,0x0,0x13,0x0,0xFE,0x0
00039e 0000
00039f 00ff
0003a0 00ff
0003a1 0039      	.DB  0x0,0x0,0xFF,0x0,0xFF,0x0,0x39,0x0
0003a2 0069
0003a3 00cf
0003a4 0086
0003a5 0000      	.DB  0x69,0x0,0xCF,0x0,0x86,0x0,0x0,0x0
0003a6 0000
0003a7 00fc
0003a8 00fe
0003a9 0013      	.DB  0x0,0x0,0xFC,0x0,0xFE,0x0,0x13,0x0
0003aa 0013
0003ab 0013
0003ac 00fe
0003ad 00fc      	.DB  0x13,0x0,0x13,0x0,0xFE,0x0,0xFC,0x0
0003ae 00ff
0003af 00ff
0003b0 0039
0003b1 0069      	.DB  0xFF,0x0,0xFF,0x0,0x39,0x0,0x69,0x0
0003b2 00cf
0003b3 0086
0003b4 0000
0003b5 0000      	.DB  0xCF,0x0,0x86,0x0,0x0,0x0,0x0,0x0
0003b6 00fc
0003b7 00fe
0003b8 0013
0003b9 0013      	.DB  0xFC,0x0,0xFE,0x0,0x13,0x0,0x13,0x0
0003ba 0013
0003bb 00fe
0003bc 00fc
0003bd 0000      	.DB  0x13,0x0,0xFE,0x0,0xFC,0x0,0x0,0x0
0003be 00ff
0003bf 0039
0003c0 0069
0003c1 00cf      	.DB  0xFF,0x0,0x39,0x0,0x69,0x0,0xCF,0x0
0003c2 0086
0003c3 0000
0003c4 0000
0003c5 00fc      	.DB  0x86,0x0,0x0,0x0,0x0,0x0,0xFC,0x0
0003c6 00fe
0003c7 0013
0003c8 0013
0003c9 0013      	.DB  0xFE,0x0,0x13,0x0,0x13,0x0,0x13,0x0
0003ca 00fe
0003cb 00fc
0003cc 0000
0003cd 00ff      	.DB  0xFE,0x0,0xFC,0x0,0x0,0x0,0xFF,0x0
0003ce 0039
0003cf 0069
0003d0 00cf
0003d1 0086      	.DB  0x39,0x0,0x69,0x0,0xCF,0x0,0x86,0x0
0003d2 0000
0003d3 0000
0003d4 00fc
0003d5 00fe      	.DB  0x0,0x0,0x0,0x0,0xFC,0x0,0xFE,0x0
0003d6 0013
0003d7 0013
0003d8 0013
0003d9 00fe      	.DB  0x13,0x0,0x13,0x0,0x13,0x0,0xFE,0x0
0003da 00fc
0003db 0000
0003dc 00ff
0003dd 00ff      	.DB  0xFC,0x0,0x0,0x0,0xFF,0x0,0xFF,0x0
0003de 0069
0003df 00cf
0003e0 0086
0003e1 0000      	.DB  0x69,0x0,0xCF,0x0,0x86,0x0,0x0,0x0
0003e2 0000
0003e3 00fc
0003e4 00fe
0003e5 0013      	.DB  0x0,0x0,0xFC,0x0,0xFE,0x0,0x13,0x0
0003e6 0013
0003e7 0013
0003e8 00fe
0003e9 00fc      	.DB  0x13,0x0,0x13,0x0,0xFE,0x0,0xFC,0x0
0003ea 0000
0003eb 00ff
0003ec 00ff
0003ed 0039      	.DB  0x0,0x0,0xFF,0x0,0xFF,0x0,0x39,0x0
0003ee 00cf
0003ef 0086
0003f0 0000
0003f1 0000      	.DB  0xCF,0x0,0x86,0x0,0x0,0x0,0x0,0x0
0003f2 00fc
0003f3 00fe
0003f4 0013
0003f5 0013      	.DB  0xFC,0x0,0xFE,0x0,0x13,0x0,0x13,0x0
0003f6 0013
0003f7 00fe
0003f8 00fc
0003f9 0000      	.DB  0x13,0x0,0xFE,0x0,0xFC,0x0,0x0,0x0
0003fa 00ff
0003fb 00ff
0003fc 0039
0003fd 0069      	.DB  0xFF,0x0,0xFF,0x0,0x39,0x0,0x69,0x0
0003fe 0086
0003ff 0000
000400 0000
000401 00fc      	.DB  0x86,0x0,0x0,0x0,0x0,0x0,0xFC,0x0
000402 00fe
000403 0013
000404 0013
000405 0013      	.DB  0xFE,0x0,0x13,0x0,0x13,0x0,0x13,0x0
000406 00fe
000407 00fc
000408 0000
000409 00ff      	.DB  0xFE,0x0,0xFC,0x0,0x0,0x0,0xFF,0x0
00040a 00ff
00040b 0039
00040c 0069
00040d 00cf      	.DB  0xFF,0x0,0x39,0x0,0x69,0x0,0xCF,0x0
00040e 0000
00040f 0000
000410 00fc
000411 00fe      	.DB  0x0,0x0,0x0,0x0,0xFC,0x0,0xFE,0x0
000412 0013
000413 0013
000414 0013
000415 00fe      	.DB  0x13,0x0,0x13,0x0,0x13,0x0,0xFE,0x0
000416 00fc
000417 0000
000418 00ff
000419 00ff      	.DB  0xFC,0x0,0x0,0x0,0xFF,0x0,0xFF,0x0
00041a 0039
00041b 0069
00041c 00cf
00041d 0086      	.DB  0x39,0x0,0x69,0x0,0xCF,0x0,0x86,0x0
                 __glcd_mask:
00041e 0100
00041f 0703
000420 1f0f
000421 7f3f      	.DB  0x0,0x1,0x3,0x7,0xF,0x1F,0x3F,0x7F
C:\cvavr\BIN\Lab08\Debug\List\Lab08.asm(1375): warning: .cseg .db misalignment - padding zero byte
000422 00ff      	.DB  0xFF
                 
                 _0x3:
C:\cvavr\BIN\Lab08\Debug\List\Lab08.asm(1378): warning: .cseg .db misalignment - padding zero byte
000423 000a      	.DB  0xA
                 _0x4:
C:\cvavr\BIN\Lab08\Debug\List\Lab08.asm(1380): warning: .cseg .db misalignment - padding zero byte
000424 0037      	.DB  0x37
                 _0x5:
C:\cvavr\BIN\Lab08\Debug\List\Lab08.asm(1382): warning: .cseg .db misalignment - padding zero byte
000425 0008      	.DB  0x8
                 _0x20C0060:
C:\cvavr\BIN\Lab08\Debug\List\Lab08.asm(1384): warning: .cseg .db misalignment - padding zero byte
000426 0001      	.DB  0x1
                 _0x20C0000:
000427 4e2d
000428 4e41
000429 4900
00042a 464e      	.DB  0x2D,0x4E,0x41,0x4E,0x0,0x49,0x4E,0x46
C:\cvavr\BIN\Lab08\Debug\List\Lab08.asm(1387): warning: .cseg .db misalignment - padding zero byte
00042b 0000      	.DB  0x0
                 
                 __GLOBAL_INI_TBL:
00042c 0001      	.DW  0x01
00042d 0191      	.DW  _second
00042e 0846      	.DW  _0x3*2
                 
00042f 0001      	.DW  0x01
000430 0193      	.DW  _minute
000431 0848      	.DW  _0x4*2
                 
000432 0001      	.DW  0x01
000433 0195      	.DW  _hour
000434 084a      	.DW  _0x5*2
                 
000435 0001      	.DW  0x01
000436 019a      	.DW  __seed_G106
000437 084c      	.DW  _0x20C0060*2
                 
                 _0xFFFFFFFF:
000438 0000      	.DW  0
                 
                 #define __GLOBAL_INI_TBL_PRESENT 1
                 
                 __RESET:
000439 94f8      	CLI
00043a 27ee      	CLR  R30
00043b bbec      	OUT  EECR,R30
                 
                 ;INTERRUPT VECTORS ARE PLACED
                 ;AT THE START OF FLASH
00043c e0f1      	LDI  R31,1
00043d bffb      	OUT  GICR,R31
00043e bfeb      	OUT  GICR,R30
00043f bfe5      	OUT  MCUCR,R30
                 
                 ;CLEAR R2-R14
000440 e08d      	LDI  R24,(14-2)+1
000441 e0a2      	LDI  R26,2
000442 27bb      	CLR  R27
                 __CLEAR_REG:
000443 93ed      	ST   X+,R30
000444 958a      	DEC  R24
000445 f7e9      	BRNE __CLEAR_REG
                 
                 ;CLEAR SRAM
000446 e080      	LDI  R24,LOW(__CLEAR_SRAM_SIZE)
000447 e094      	LDI  R25,HIGH(__CLEAR_SRAM_SIZE)
000448 e6a0      	LDI  R26,__SRAM_START
                 __CLEAR_SRAM:
000449 93ed      	ST   X+,R30
00044a 9701      	SBIW R24,1
00044b f7e9      	BRNE __CLEAR_SRAM
                 
                 ;GLOBAL VARIABLES INITIALIZATION
00044c e5e8      	LDI  R30,LOW(__GLOBAL_INI_TBL*2)
00044d e0f8      	LDI  R31,HIGH(__GLOBAL_INI_TBL*2)
                 __GLOBAL_INI_NEXT:
00044e 9185      	LPM  R24,Z+
00044f 9195      	LPM  R25,Z+
000450 9700      	SBIW R24,0
000451 f061      	BREQ __GLOBAL_INI_END
000452 91a5      	LPM  R26,Z+
000453 91b5      	LPM  R27,Z+
000454 9005      	LPM  R0,Z+
000455 9015      	LPM  R1,Z+
000456 01bf      	MOVW R22,R30
000457 01f0      	MOVW R30,R0
                 __GLOBAL_INI_LOOP:
000458 9005      	LPM  R0,Z+
000459 920d      	ST   X+,R0
00045a 9701      	SBIW R24,1
00045b f7e1      	BRNE __GLOBAL_INI_LOOP
00045c 01fb      	MOVW R30,R22
00045d cff0      	RJMP __GLOBAL_INI_NEXT
                 __GLOBAL_INI_END:
                 
                 ;HARDWARE STACK POINTER INITIALIZATION
00045e e5ef      	LDI  R30,LOW(__SRAM_END-__HEAP_SIZE)
00045f bfed      	OUT  SPL,R30
000460 e0e4      	LDI  R30,HIGH(__SRAM_END-__HEAP_SIZE)
000461 bfee      	OUT  SPH,R30
                 
                 ;DATA STACK POINTER INITIALIZATION
000462 e6c0      	LDI  R28,LOW(__SRAM_START+__DSTACK_SIZE)
000463 e0d1      	LDI  R29,HIGH(__SRAM_START+__DSTACK_SIZE)
                 
000464 940c 0486 	JMP  _main
                 
                 	.ESEG
                 	.ORG 0
                 
                 	.DSEG
                 	.ORG 0x160
                 
                 	.CSEG
                 ;/*******************************************************
                 ;This program was created by the
                 ;CodeWizardAVR V3.12 Advanced
                 ;Automatic Program Generator
                 ; Copyright 1998-2014 Pavel Haiduc, HP InfoTech s.r.l.
                 ;http://www.hpinfotech.com
                 ;
                 ;Project :
                 ;Version :
                 ;Date    : 12/16/2020
                 ;Author  : Arman Riasi
                 ;Company :
                 ;Comments:
                 ;
                 ;
                 ;Chip type               : ATmega16
                 ;Program type            : Application
                 ;AVR Core Clock frequency: 8.000000 MHz
                 ;Memory model            : Small
                 ;External RAM size       : 0
                 ;Data Stack size         : 256
                 ;*******************************************************/
                 ;
                 ;#include <define.h>
                 	#ifndef __SLEEP_DEFINED__
                 	#define __SLEEP_DEFINED__
                 	.EQU __se_bit=0x40
                 	.EQU __sm_mask=0xB0
                 	.EQU __sm_powerdown=0x20
                 	.EQU __sm_powersave=0x30
                 	.EQU __sm_standby=0xA0
                 	.EQU __sm_ext_standby=0xB0
                 	.EQU __sm_adc_noise_red=0x10
                 	.SET power_ctrl_reg=mcucr
                 	#endif
                 ;
                 ;int i = 0;
                 ;long int count = 0;
                 ;int j = 0;
                 ;int myMax = 0;
                 ;int myMin = 0;
                 ;
                 ;long x;
                 ;long y;
                 ;int second = 10;
                 
                 	.DSEG
                 ;int minute = 55;
                 ;int hour = 8;
                 ;
                 ;
                 ;
                 ;
                 ;
                 ;// Declare your global variables here
                 ;const unsigned short AR16x8[] = {
                 ;        0x00, 0xFC, 0xFE, 0x13, 0x13, 0x13, 0xFE, 0xFC, 0x00, 0xFF, 0xFF, 0x39, 0x69, 0xCF, 0x86, 0x00,  // Code for cha ...
                 ;        0xFC, 0xFE, 0x13, 0x13, 0x13, 0xFE, 0xFC, 0x00, 0xFF, 0xFF, 0x39, 0x69, 0xCF, 0x86, 0x00, 0x00,  // Code for cha ...
                 ;        0xFE, 0x13, 0x13, 0x13, 0xFE, 0xFC, 0x00, 0xFF, 0xFF, 0x39, 0x69, 0xCF, 0x86, 0x00, 0x00, 0xFC,  // Code for cha ...
                 ;        0x13, 0x13, 0x13, 0xFE, 0xFC, 0x00, 0xFF, 0xFF, 0x39, 0x69, 0xCF, 0x86, 0x00, 0x00, 0xFC, 0xFE,  // Code for cha ...
                 ;        0x13, 0x13, 0xFE, 0xFC, 0x00, 0xFF, 0xFF, 0x39, 0x69, 0xCF, 0x86, 0x00, 0x00, 0xFC, 0xFE, 0x13,  // Code for cha ...
                 ;        0x13, 0xFE, 0xFC, 0x00, 0xFF, 0xFF, 0x39, 0x69, 0xCF, 0x86, 0x00, 0x00, 0xFC, 0xFE, 0x13, 0x13,  // Code for cha ...
                 ;        0xFE, 0xFC, 0x00, 0xFF, 0xFF, 0x39, 0x69, 0xCF, 0x86, 0x00, 0x00, 0xFC, 0xFE, 0x13, 0x13, 0x13,  // Code for cha ...
                 ;        0xFC, 0x00, 0xFF, 0xFF, 0x39, 0x69, 0xCF, 0x86, 0x00, 0x00, 0xFC, 0xFE, 0x13, 0x13, 0x13, 0xFE,  // Code for cha ...
                 ;        0x00, 0xFF, 0xFF, 0x39, 0x69, 0xCF, 0x86, 0x00, 0x00, 0xFC, 0xFE, 0x13, 0x13, 0x13, 0xFE, 0xFC,  // Code for cha ...
                 ;        0xFF, 0xFF, 0x39, 0x69, 0xCF, 0x86, 0x00, 0x00, 0xFC, 0xFE, 0x13, 0x13, 0x13, 0xFE, 0xFC, 0x00,  // Code for cha ...
                 ;        0xFF, 0x39, 0x69, 0xCF, 0x86, 0x00, 0x00, 0xFC, 0xFE, 0x13, 0x13, 0x13, 0xFE, 0xFC, 0x00, 0xFF,  // Code for cha ...
                 ;        0x39, 0x69, 0xCF, 0x86, 0x00, 0x00, 0xFC, 0xFE, 0x13, 0x13, 0x13, 0xFE, 0xFC, 0x00, 0xFF, 0xFF,  // Code for cha ...
                 ;        0x69, 0xCF, 0x86, 0x00, 0x00, 0xFC, 0xFE, 0x13, 0x13, 0x13, 0xFE, 0xFC, 0x00, 0xFF, 0xFF, 0x39,  // Code for cha ...
                 ;        0xCF, 0x86, 0x00, 0x00, 0xFC, 0xFE, 0x13, 0x13, 0x13, 0xFE, 0xFC, 0x00, 0xFF, 0xFF, 0x39, 0x69,  // Code for cha ...
                 ;        0x86, 0x00, 0x00, 0xFC, 0xFE, 0x13, 0x13, 0x13, 0xFE, 0xFC, 0x00, 0xFF, 0xFF, 0x39, 0x69, 0xCF,  // Code for cha ...
                 ;        0x00, 0x00, 0xFC, 0xFE, 0x13, 0x13, 0x13, 0xFE, 0xFC, 0x00, 0xFF, 0xFF, 0x39, 0x69, 0xCF, 0x86   // Code for cha ...
                 ;        };
                 ;
                 ;
                 ;
                 ;
                 ;// Timer1 overflow interrupt service routine
                 ;interrupt [TIM1_OVF] void timer1_ovf_isr(void)
                 ; 0000 0043 {
                 
                 	.CSEG
                 _timer1_ovf_isr:
                 ; .FSTART _timer1_ovf_isr
000466 920a      	ST   -Y,R0
000467 921a      	ST   -Y,R1
000468 92fa      	ST   -Y,R15
000469 936a      	ST   -Y,R22
00046a 937a      	ST   -Y,R23
00046b 938a      	ST   -Y,R24
00046c 939a      	ST   -Y,R25
00046d 93aa      	ST   -Y,R26
00046e 93ba      	ST   -Y,R27
00046f 93ea      	ST   -Y,R30
000470 93fa      	ST   -Y,R31
000471 b7ef      	IN   R30,SREG
000472 93ea      	ST   -Y,R30
                 ; 0000 0044     // Reinitialize Timer1 value
                 ; 0000 0045     TCNT1H=0x85EE >> 8;
000473 e8e5      	LDI  R30,LOW(133)
000474 bded      	OUT  0x2D,R30
                 ; 0000 0046     TCNT1L=0x85EE & 0xff;
000475 eeee      	LDI  R30,LOW(238)
000476 bdec      	OUT  0x2C,R30
                 ; 0000 0047 
                 ; 0000 0048 
                 ; 0000 0049    Question_03();
000477 d17f      	RCALL _Question_03
                 ; 0000 004A 
                 ; 0000 004B }
000478 91e9      	LD   R30,Y+
000479 bfef      	OUT  SREG,R30
00047a 91f9      	LD   R31,Y+
00047b 91e9      	LD   R30,Y+
00047c 91b9      	LD   R27,Y+
00047d 91a9      	LD   R26,Y+
00047e 9199      	LD   R25,Y+
00047f 9189      	LD   R24,Y+
000480 9179      	LD   R23,Y+
000481 9169      	LD   R22,Y+
000482 90f9      	LD   R15,Y+
000483 9019      	LD   R1,Y+
000484 9009      	LD   R0,Y+
000485 9518      	RETI
                 ; .FEND
                 ;
                 ;
                 ;void main(void)
                 ; 0000 004F {
                 _main:
                 ; .FSTART _main
                 ; 0000 0050     // Declare your local variables here
                 ; 0000 0051     // Variable used to store graphic display
                 ; 0000 0052     // controller initialization data
                 ; 0000 0053     GLCDINIT_t glcd_init_data;
                 ; 0000 0054     IO_Init();
000486 9726      	SBIW R28,6
                 ;	glcd_init_data -> Y+0
000487 d01b      	RCALL _IO_Init
                 ; 0000 0055     // Graphic Display Controller initialization
                 ; 0000 0056     // The KS0108 connections are specified in the
                 ; 0000 0057     // Project|Configure|C Compiler|Libraries|Graphic Display menu:
                 ; 0000 0058     // DB0 - PORTC Bit 0
                 ; 0000 0059     // DB1 - PORTC Bit 1
                 ; 0000 005A     // DB2 - PORTC Bit 2
                 ; 0000 005B     // DB3 - PORTC Bit 3
                 ; 0000 005C     // DB4 - PORTC Bit 4
                 ; 0000 005D     // DB5 - PORTC Bit 5
                 ; 0000 005E     // DB6 - PORTC Bit 6
                 ; 0000 005F     // DB7 - PORTC Bit 7
                 ; 0000 0060     // E - PORTD Bit 0
                 ; 0000 0061     // RD /WR - PORTD Bit 1
                 ; 0000 0062     // RS - PORTD Bit 2
                 ; 0000 0063     // /RST - PORTD Bit 3
                 ; 0000 0064     // CS1 - PORTD Bit 4
                 ; 0000 0065     // CS2 - PORTD Bit 5
                 ; 0000 0066 
                 ; 0000 0067     // Specify the current font for displaying text
                 ; 0000 0068     glcd_init_data.font=font5x7;
000488 e5e4      	LDI  R30,LOW(_font5x7*2)
000489 e0f0      	LDI  R31,HIGH(_font5x7*2)
00048a 83e8      	ST   Y,R30
00048b 83f9      	STD  Y+1,R31
                 ; 0000 0069     // No function is used for reading
                 ; 0000 006A     // image data from external memory
                 ; 0000 006B     glcd_init_data.readxmem=NULL;
00048c e0e0      	LDI  R30,LOW(0)
00048d 83ea      	STD  Y+2,R30
00048e 83eb      	STD  Y+2+1,R30
                 ; 0000 006C     // No function is used for writing
                 ; 0000 006D     // image data to external memory
                 ; 0000 006E     glcd_init_data.writexmem=NULL;
00048f 83ec      	STD  Y+4,R30
000490 83ed      	STD  Y+4+1,R30
                 ; 0000 006F 
                 ; 0000 0070     glcd_init(&glcd_init_data);
000491 01de      	MOVW R26,R28
000492 940e 06ff 	CALL _glcd_init
                 ; 0000 0071 
                 ; 0000 0072 
                 ; 0000 0073     TimerInit();
000494 d1d9      	RCALL _TimerInit
                 ; 0000 0074 
                 ; 0000 0075 
                 ; 0000 0076 
                 ; 0000 0077 
                 ; 0000 0078     ////// Question_04 =>
                 ; 0000 0079 
                 ; 0000 007A     Question_02();
000495 d156      	RCALL _Question_02
                 ; 0000 007B     delay_ms(3000);
000496 eba8      	LDI  R26,LOW(3000)
000497 e0bb      	LDI  R27,HIGH(3000)
000498 940e 1071 	CALL _delay_ms
                 ; 0000 007C     // Global enable interrupts
                 ; 0000 007D     #asm("sei")
00049a 9478      	sei
                 ; 0000 007E     delay_ms(5000);
00049b e8a8      	LDI  R26,LOW(5000)
00049c e1b3      	LDI  R27,HIGH(5000)
00049d 940e 1071 	CALL _delay_ms
                 ; 0000 007F     #asm("cli")
00049f 94f8      	cli
                 ; 0000 0080     Question_01();
0004a0 d00c      	RCALL _Question_01
                 ; 0000 0081 
                 ; 0000 0082 }
0004a1 9626      	ADIW R28,6
                 _0x6:
0004a2 cfff      	RJMP _0x6
                 ; .FEND
                 ;#include <define.h>
                 	#ifndef __SLEEP_DEFINED__
                 	#endif
                 ;
                 ;
                 ;void IO_Init(){
                 ; 0001 0004 void IO_Init(){
                 
                 	.CSEG
                 _IO_Init:
                 ; .FSTART _IO_Init
                 ; 0001 0005     // Input/Output Ports initialization
                 ; 0001 0006     // Port A initialization
                 ; 0001 0007     // Function: Bit7=In Bit6=In Bit5=In Bit4=In Bit3=In Bit2=In Bit1=In Bit0=In
                 ; 0001 0008     DDRA=(0<<DDA7) | (0<<DDA6) | (0<<DDA5) | (0<<DDA4) | (0<<DDA3) | (0<<DDA2) | (0<<DDA1) | (0<<DDA0);
0004a3 e0e0      	LDI  R30,LOW(0)
0004a4 bbea      	OUT  0x1A,R30
                 ; 0001 0009     // State: Bit7=T Bit6=T Bit5=T Bit4=T Bit3=T Bit2=T Bit1=T Bit0=T
                 ; 0001 000A     PORTA=(0<<PORTA7) | (0<<PORTA6) | (0<<PORTA5) | (0<<PORTA4) | (0<<PORTA3) | (0<<PORTA2) | (0<<PORTA1) | (0<<PORTA0);
0004a5 bbeb      	OUT  0x1B,R30
                 ; 0001 000B 
                 ; 0001 000C     // Port B initialization
                 ; 0001 000D     // Function: Bit7=In Bit6=In Bit5=In Bit4=In Bit3=In Bit2=In Bit1=In Bit0=In
                 ; 0001 000E     DDRB=(0<<DDB7) | (0<<DDB6) | (0<<DDB5) | (0<<DDB4) | (0<<DDB3) | (0<<DDB2) | (0<<DDB1) | (0<<DDB0);
0004a6 bbe7      	OUT  0x17,R30
                 ; 0001 000F     // State: Bit7=T Bit6=T Bit5=T Bit4=T Bit3=T Bit2=T Bit1=T Bit0=T
                 ; 0001 0010     PORTB=(0<<PORTB7) | (0<<PORTB6) | (0<<PORTB5) | (0<<PORTB4) | (0<<PORTB3) | (0<<PORTB2) | (0<<PORTB1) | (0<<PORTB0);
0004a7 bbe8      	OUT  0x18,R30
                 ; 0001 0011 
                 ; 0001 0012     // Port C initialization
                 ; 0001 0013     // Function: Bit7=In Bit6=In Bit5=In Bit4=In Bit3=In Bit2=In Bit1=In Bit0=In
                 ; 0001 0014     DDRC=(0<<DDC7) | (0<<DDC6) | (0<<DDC5) | (0<<DDC4) | (0<<DDC3) | (0<<DDC2) | (0<<DDC1) | (0<<DDC0);
0004a8 bbe4      	OUT  0x14,R30
                 ; 0001 0015     // State: Bit7=T Bit6=T Bit5=T Bit4=T Bit3=T Bit2=T Bit1=T Bit0=T
                 ; 0001 0016     PORTC=(0<<PORTC7) | (0<<PORTC6) | (0<<PORTC5) | (0<<PORTC4) | (0<<PORTC3) | (0<<PORTC2) | (0<<PORTC1) | (0<<PORTC0);
0004a9 bbe5      	OUT  0x15,R30
                 ; 0001 0017 
                 ; 0001 0018     // Port D initialization
                 ; 0001 0019     // Function: Bit7=In Bit6=In Bit5=In Bit4=In Bit3=In Bit2=In Bit1=In Bit0=In
                 ; 0001 001A     DDRD=(0<<DDD7) | (0<<DDD6) | (0<<DDD5) | (0<<DDD4) | (0<<DDD3) | (0<<DDD2) | (0<<DDD1) | (0<<DDD0);
0004aa bbe1      	OUT  0x11,R30
                 ; 0001 001B     // State: Bit7=T Bit6=T Bit5=T Bit4=T Bit3=T Bit2=T Bit1=T Bit0=T
                 ; 0001 001C     PORTD=(0<<PORTD7) | (0<<PORTD6) | (0<<PORTD5) | (0<<PORTD4) | (0<<PORTD3) | (0<<PORTD2) | (0<<PORTD1) | (0<<PORTD0);
0004ab bbe2      	OUT  0x12,R30
                 ; 0001 001D 
                 ; 0001 001E }
0004ac 9508      	RET
                 ; .FEND
                 ;
                 ;void Question_01(){
                 ; 0001 0020 void Question_01(){
                 _Question_01:
                 ; .FSTART _Question_01
                 ; 0001 0021 
                 ; 0001 0022      i = 0;
0004ad 940e 0ed7 	CALL SUBOPT_0x0
                 ; 0001 0023      j = 0;
                 ; 0001 0024      myMax = 8;
0004af 940e 0ee1 	CALL SUBOPT_0x1
                 ; 0001 0025      myMin = 0;
                 ; 0001 0026 
                 ; 0001 0027      while(1){
                 _0x20003:
                 ; 0001 0028          while (1){
                 _0x20006:
                 ; 0001 0029             PORTD = 0x80;
0004b1 e8e0      	LDI  R30,LOW(128)
0004b2 bbe2      	OUT  0x12,R30
                 ; 0001 002A             PORTB = ~AR16x8[i];
0004b3 91e0 017d 	LDS  R30,_i
0004b5 91f0 017e 	LDS  R31,_i+1
0004b7 e3ac      	LDI  R26,LOW(_AR16x8*2)
0004b8 e0b6      	LDI  R27,HIGH(_AR16x8*2)
0004b9 0fee      	LSL  R30
0004ba 1fff      	ROL  R31
0004bb 0fea      	ADD  R30,R26
0004bc 1ffb      	ADC  R31,R27
0004bd 940e 0eed 	CALL SUBOPT_0x2
                 ; 0001 002B             PORTA = 1<<j;
                 ; 0001 002C 
                 ; 0001 002D             delay_ms(2);
0004bf e0a2      	LDI  R26,LOW(2)
0004c0 e0b0      	LDI  R27,0
0004c1 940e 1071 	CALL _delay_ms
                 ; 0001 002E 
                 ; 0001 002F             PORTD = 0x00;
0004c3 e0e0      	LDI  R30,LOW(0)
0004c4 bbe2      	OUT  0x12,R30
                 ; 0001 0030             PORTB = ~AR16x8[i+8];
0004c5 91e0 017d 	LDS  R30,_i
0004c7 91f0 017e 	LDS  R31,_i+1
0004c9 0fee      	LSL  R30
0004ca 1fff      	ROL  R31
                +
0004cb 5be4     +SUBI R30 , LOW ( - 2 * _AR16x8 - ( 16 ) )
0004cc 4ff9     +SBCI R31 , HIGH ( - 2 * _AR16x8 - ( 16 ) )
                 	__ADDW1FN _AR16x8,16
0004cd 940e 0eed 	CALL SUBOPT_0x2
                 ; 0001 0031             PORTA = 1<<j;
                 ; 0001 0032 
                 ; 0001 0033             i++;
0004cf e7ad      	LDI  R26,LOW(_i)
0004d0 e0b1      	LDI  R27,HIGH(_i)
0004d1 940e 0ef7 	CALL SUBOPT_0x3
                 ; 0001 0034             if (i == myMax) i = myMin;
0004d3 91e0 0185 	LDS  R30,_myMax
0004d5 91f0 0186 	LDS  R31,_myMax+1
0004d7 91a0 017d 	LDS  R26,_i
0004d9 91b0 017e 	LDS  R27,_i+1
0004db 17ea      	CP   R30,R26
0004dc 07fb      	CPC  R31,R27
0004dd f441      	BRNE _0x20009
0004de 91e0 0187 	LDS  R30,_myMin
0004e0 91f0 0188 	LDS  R31,_myMin+1
0004e2 93e0 017d 	STS  _i,R30
0004e4 93f0 017e 	STS  _i+1,R31
                 ; 0001 0035             j = (j+1)%8;
                 _0x20009:
0004e6 91e0 0183 	LDS  R30,_j
0004e8 91f0 0184 	LDS  R31,_j+1
0004ea 9631      	ADIW R30,1
0004eb e0a7      	LDI  R26,LOW(7)
0004ec e0b0      	LDI  R27,HIGH(7)
0004ed 940e 127c 	CALL __MANDW12
0004ef 93e0 0183 	STS  _j,R30
0004f1 93f0 0184 	STS  _j+1,R31
                 ; 0001 0036             delay_ms(2);
0004f3 e0a2      	LDI  R26,LOW(2)
0004f4 e0b0      	LDI  R27,0
0004f5 940e 1071 	CALL _delay_ms
                 ; 0001 0037             count++;
0004f7 e7af      	LDI  R26,LOW(_count)
0004f8 e0b1      	LDI  R27,HIGH(_count)
0004f9 940e 1298 	CALL __GETD1P_INC
                +
0004fb 5fef     +SUBI R30 , LOW ( - 1 )
0004fc 4fff     +SBCI R31 , HIGH ( - 1 )
0004fd 4f6f     +SBCI R22 , BYTE3 ( - 1 )
0004fe 4f7f     +SBCI R23 , BYTE4 ( - 1 )
                 	__SUBD1N -1
0004ff 940e 12a2 	CALL __PUTDP1_DEC
                 ; 0001 0038 
                 ; 0001 0039             if (count == 200){
000501 91a0 017f 	LDS  R26,_count
000503 91b0 0180 	LDS  R27,_count+1
000505 9180 0181 	LDS  R24,_count+2
000507 9190 0182 	LDS  R25,_count+3
                +
000509 3ca8     +CPI R26 , LOW ( 0xC8 )
00050a e0e0     +LDI R30 , HIGH ( 0xC8 )
00050b 07be     +CPC R27 , R30
00050c e0e0     +LDI R30 , BYTE3 ( 0xC8 )
00050d 078e     +CPC R24 , R30
00050e e0e0     +LDI R30 , BYTE4 ( 0xC8 )
00050f 079e     +CPC R25 , R30
                 	__CPD2N 0xC8
000510 f451      	BRNE _0x2000A
                 ; 0001 003A                 count = 0;
000511 e0e0      	LDI  R30,LOW(0)
000512 93e0 017f 	STS  _count,R30
000514 93e0 0180 	STS  _count+1,R30
000516 93e0 0181 	STS  _count+2,R30
000518 93e0 0182 	STS  _count+3,R30
                 ; 0001 003B                 break;
00051a c001      	RJMP _0x20008
                 ; 0001 003C             }
                 ; 0001 003D 
                 ; 0001 003E          }
                 _0x2000A:
00051b cf95      	RJMP _0x20006
                 _0x20008:
                 ; 0001 003F 
                 ; 0001 0040 
                 ; 0001 0041      switch(myMax){
00051c 91e0 0185 	LDS  R30,_myMax
00051e 91f0 0186 	LDS  R31,_myMax+1
                 ; 0001 0042         case 8:
000520 30e8      	CPI  R30,LOW(0x8)
000521 e0a0      	LDI  R26,HIGH(0x8)
000522 07fa      	CPC  R31,R26
000523 f449      	BRNE _0x2000E
                 ; 0001 0043             myMax = 24;
000524 e1e8      	LDI  R30,LOW(24)
000525 e0f0      	LDI  R31,HIGH(24)
000526 940e 0efd 	CALL SUBOPT_0x4
                 ; 0001 0044             myMin = 16;
000528 e1e0      	LDI  R30,LOW(16)
000529 e0f0      	LDI  R31,HIGH(16)
00052a 940e 0f02 	CALL SUBOPT_0x5
                 ; 0001 0045             break;
00052c c0be      	RJMP _0x2000D
                 ; 0001 0046         case 24:
                 _0x2000E:
00052d 31e8      	CPI  R30,LOW(0x18)
00052e e0a0      	LDI  R26,HIGH(0x18)
00052f 07fa      	CPC  R31,R26
000530 f449      	BRNE _0x2000F
                 ; 0001 0047             myMax = 40;
000531 e2e8      	LDI  R30,LOW(40)
000532 e0f0      	LDI  R31,HIGH(40)
000533 940e 0efd 	CALL SUBOPT_0x4
                 ; 0001 0048             myMin = 32;
000535 e2e0      	LDI  R30,LOW(32)
000536 e0f0      	LDI  R31,HIGH(32)
000537 940e 0f02 	CALL SUBOPT_0x5
                 ; 0001 0049             break;
000539 c0b1      	RJMP _0x2000D
                 ; 0001 004A         case 40:
                 _0x2000F:
00053a 32e8      	CPI  R30,LOW(0x28)
00053b e0a0      	LDI  R26,HIGH(0x28)
00053c 07fa      	CPC  R31,R26
00053d f449      	BRNE _0x20010
                 ; 0001 004B             myMax = 56;
00053e e3e8      	LDI  R30,LOW(56)
00053f e0f0      	LDI  R31,HIGH(56)
000540 940e 0efd 	CALL SUBOPT_0x4
                 ; 0001 004C             myMin = 48;
000542 e3e0      	LDI  R30,LOW(48)
000543 e0f0      	LDI  R31,HIGH(48)
000544 940e 0f02 	CALL SUBOPT_0x5
                 ; 0001 004D             break;
000546 c0a4      	RJMP _0x2000D
                 ; 0001 004E         case 56:
                 _0x20010:
000547 33e8      	CPI  R30,LOW(0x38)
000548 e0a0      	LDI  R26,HIGH(0x38)
000549 07fa      	CPC  R31,R26
00054a f449      	BRNE _0x20011
                 ; 0001 004F             myMax = 72;
00054b e4e8      	LDI  R30,LOW(72)
00054c e0f0      	LDI  R31,HIGH(72)
00054d 940e 0efd 	CALL SUBOPT_0x4
                 ; 0001 0050             myMin = 64;
00054f e4e0      	LDI  R30,LOW(64)
000550 e0f0      	LDI  R31,HIGH(64)
000551 940e 0f02 	CALL SUBOPT_0x5
                 ; 0001 0051             break;
000553 c097      	RJMP _0x2000D
                 ; 0001 0052         case 72:
                 _0x20011:
000554 34e8      	CPI  R30,LOW(0x48)
000555 e0a0      	LDI  R26,HIGH(0x48)
000556 07fa      	CPC  R31,R26
000557 f449      	BRNE _0x20012
                 ; 0001 0053             myMax = 88;
000558 e5e8      	LDI  R30,LOW(88)
000559 e0f0      	LDI  R31,HIGH(88)
00055a 940e 0efd 	CALL SUBOPT_0x4
                 ; 0001 0054             myMin = 80;
00055c e5e0      	LDI  R30,LOW(80)
00055d e0f0      	LDI  R31,HIGH(80)
00055e 940e 0f02 	CALL SUBOPT_0x5
                 ; 0001 0055             break;
000560 c08a      	RJMP _0x2000D
                 ; 0001 0056         case 88:
                 _0x20012:
000561 35e8      	CPI  R30,LOW(0x58)
000562 e0a0      	LDI  R26,HIGH(0x58)
000563 07fa      	CPC  R31,R26
000564 f449      	BRNE _0x20013
                 ; 0001 0057             myMax = 104;
000565 e6e8      	LDI  R30,LOW(104)
000566 e0f0      	LDI  R31,HIGH(104)
000567 940e 0efd 	CALL SUBOPT_0x4
                 ; 0001 0058             myMin = 96;
000569 e6e0      	LDI  R30,LOW(96)
00056a e0f0      	LDI  R31,HIGH(96)
00056b 940e 0f02 	CALL SUBOPT_0x5
                 ; 0001 0059             break;
00056d c07d      	RJMP _0x2000D
                 ; 0001 005A         case 104:
                 _0x20013:
00056e 36e8      	CPI  R30,LOW(0x68)
00056f e0a0      	LDI  R26,HIGH(0x68)
000570 07fa      	CPC  R31,R26
000571 f449      	BRNE _0x20014
                 ; 0001 005B             myMax = 120;
000572 e7e8      	LDI  R30,LOW(120)
000573 e0f0      	LDI  R31,HIGH(120)
000574 940e 0efd 	CALL SUBOPT_0x4
                 ; 0001 005C             myMin = 112;
000576 e7e0      	LDI  R30,LOW(112)
000577 e0f0      	LDI  R31,HIGH(112)
000578 940e 0f02 	CALL SUBOPT_0x5
                 ; 0001 005D             break;
00057a c070      	RJMP _0x2000D
                 ; 0001 005E         case 120:
                 _0x20014:
00057b 37e8      	CPI  R30,LOW(0x78)
00057c e0a0      	LDI  R26,HIGH(0x78)
00057d 07fa      	CPC  R31,R26
00057e f449      	BRNE _0x20015
                 ; 0001 005F             myMax = 136;
00057f e8e8      	LDI  R30,LOW(136)
000580 e0f0      	LDI  R31,HIGH(136)
000581 940e 0efd 	CALL SUBOPT_0x4
                 ; 0001 0060             myMin = 128;
000583 e8e0      	LDI  R30,LOW(128)
000584 e0f0      	LDI  R31,HIGH(128)
000585 940e 0f02 	CALL SUBOPT_0x5
                 ; 0001 0061             break;
000587 c063      	RJMP _0x2000D
                 ; 0001 0062         case 136:
                 _0x20015:
000588 38e8      	CPI  R30,LOW(0x88)
000589 e0a0      	LDI  R26,HIGH(0x88)
00058a 07fa      	CPC  R31,R26
00058b f449      	BRNE _0x20016
                 ; 0001 0063             myMax = 152;
00058c e9e8      	LDI  R30,LOW(152)
00058d e0f0      	LDI  R31,HIGH(152)
00058e 940e 0efd 	CALL SUBOPT_0x4
                 ; 0001 0064             myMin = 144;
000590 e9e0      	LDI  R30,LOW(144)
000591 e0f0      	LDI  R31,HIGH(144)
000592 940e 0f02 	CALL SUBOPT_0x5
                 ; 0001 0065             break;
000594 c056      	RJMP _0x2000D
                 ; 0001 0066         case 152:
                 _0x20016:
000595 39e8      	CPI  R30,LOW(0x98)
000596 e0a0      	LDI  R26,HIGH(0x98)
000597 07fa      	CPC  R31,R26
000598 f449      	BRNE _0x20017
                 ; 0001 0067             myMax = 168;
000599 eae8      	LDI  R30,LOW(168)
00059a e0f0      	LDI  R31,HIGH(168)
00059b 940e 0efd 	CALL SUBOPT_0x4
                 ; 0001 0068             myMin = 160;
00059d eae0      	LDI  R30,LOW(160)
00059e e0f0      	LDI  R31,HIGH(160)
00059f 940e 0f02 	CALL SUBOPT_0x5
                 ; 0001 0069             break;
0005a1 c049      	RJMP _0x2000D
                 ; 0001 006A         case 168:
                 _0x20017:
0005a2 3ae8      	CPI  R30,LOW(0xA8)
0005a3 e0a0      	LDI  R26,HIGH(0xA8)
0005a4 07fa      	CPC  R31,R26
0005a5 f449      	BRNE _0x20018
                 ; 0001 006B             myMax = 184;
0005a6 ebe8      	LDI  R30,LOW(184)
0005a7 e0f0      	LDI  R31,HIGH(184)
0005a8 940e 0efd 	CALL SUBOPT_0x4
                 ; 0001 006C             myMin = 176;
0005aa ebe0      	LDI  R30,LOW(176)
0005ab e0f0      	LDI  R31,HIGH(176)
0005ac 940e 0f02 	CALL SUBOPT_0x5
                 ; 0001 006D             break;
0005ae c03c      	RJMP _0x2000D
                 ; 0001 006E         case 184:
                 _0x20018:
0005af 3be8      	CPI  R30,LOW(0xB8)
0005b0 e0a0      	LDI  R26,HIGH(0xB8)
0005b1 07fa      	CPC  R31,R26
0005b2 f449      	BRNE _0x20019
                 ; 0001 006F             myMax = 200;
0005b3 ece8      	LDI  R30,LOW(200)
0005b4 e0f0      	LDI  R31,HIGH(200)
0005b5 940e 0efd 	CALL SUBOPT_0x4
                 ; 0001 0070             myMin = 192;
0005b7 ece0      	LDI  R30,LOW(192)
0005b8 e0f0      	LDI  R31,HIGH(192)
0005b9 940e 0f02 	CALL SUBOPT_0x5
                 ; 0001 0071             break;
0005bb c02f      	RJMP _0x2000D
                 ; 0001 0072         case 200:
                 _0x20019:
0005bc 3ce8      	CPI  R30,LOW(0xC8)
0005bd e0a0      	LDI  R26,HIGH(0xC8)
0005be 07fa      	CPC  R31,R26
0005bf f449      	BRNE _0x2001A
                 ; 0001 0073             myMax = 216;
0005c0 ede8      	LDI  R30,LOW(216)
0005c1 e0f0      	LDI  R31,HIGH(216)
0005c2 940e 0efd 	CALL SUBOPT_0x4
                 ; 0001 0074             myMin = 208;
0005c4 ede0      	LDI  R30,LOW(208)
0005c5 e0f0      	LDI  R31,HIGH(208)
0005c6 940e 0f02 	CALL SUBOPT_0x5
                 ; 0001 0075             break;
0005c8 c022      	RJMP _0x2000D
                 ; 0001 0076         case 216:
                 _0x2001A:
0005c9 3de8      	CPI  R30,LOW(0xD8)
0005ca e0a0      	LDI  R26,HIGH(0xD8)
0005cb 07fa      	CPC  R31,R26
0005cc f449      	BRNE _0x2001B
                 ; 0001 0077             myMax = 232;
0005cd eee8      	LDI  R30,LOW(232)
0005ce e0f0      	LDI  R31,HIGH(232)
0005cf 940e 0efd 	CALL SUBOPT_0x4
                 ; 0001 0078             myMin = 224;
0005d1 eee0      	LDI  R30,LOW(224)
0005d2 e0f0      	LDI  R31,HIGH(224)
0005d3 940e 0f02 	CALL SUBOPT_0x5
                 ; 0001 0079             break;
0005d5 c015      	RJMP _0x2000D
                 ; 0001 007A         case 232:
                 _0x2001B:
0005d6 3ee8      	CPI  R30,LOW(0xE8)
0005d7 e0a0      	LDI  R26,HIGH(0xE8)
0005d8 07fa      	CPC  R31,R26
0005d9 f449      	BRNE _0x2001C
                 ; 0001 007B             myMax = 248;
0005da efe8      	LDI  R30,LOW(248)
0005db e0f0      	LDI  R31,HIGH(248)
0005dc 940e 0efd 	CALL SUBOPT_0x4
                 ; 0001 007C             myMin = 240;
0005de efe0      	LDI  R30,LOW(240)
0005df e0f0      	LDI  R31,HIGH(240)
0005e0 940e 0f02 	CALL SUBOPT_0x5
                 ; 0001 007D             break;
0005e2 c008      	RJMP _0x2000D
                 ; 0001 007E         case 248:
                 _0x2001C:
0005e3 3fe8      	CPI  R30,LOW(0xF8)
0005e4 e0a0      	LDI  R26,HIGH(0xF8)
0005e5 07fa      	CPC  R31,R26
0005e6 f421      	BRNE _0x2000D
                 ; 0001 007F             myMax = 8;
0005e7 940e 0ee1 	CALL SUBOPT_0x1
                 ; 0001 0080             myMin = 0;
                 ; 0001 0081             i = 0;
0005e9 940e 0ed7 	CALL SUBOPT_0x0
                 ; 0001 0082             j = 0;
                 ; 0001 0083             break;
                 ; 0001 0084 
                 ; 0001 0085      }
                 _0x2000D:
                 ; 0001 0086 
                 ; 0001 0087    }
0005eb cec5      	RJMP _0x20003
                 ; 0001 0088 }
                 ; .FEND
                 ;
                 ;void Question_02(){
                 ; 0001 008A void Question_02(){
                 _Question_02:
                 ; .FSTART _Question_02
                 ; 0001 008B     glcd_putimagef(0,0,ds,GLCD_PUTCOPY);
0005ec e0e0      	LDI  R30,LOW(0)
0005ed 93ea      	ST   -Y,R30
0005ee 93ea      	ST   -Y,R30
0005ef e3e8      	LDI  R30,LOW(_ds*2)
0005f0 e0f2      	LDI  R31,HIGH(_ds*2)
0005f1 93fa      	ST   -Y,R31
0005f2 93ea      	ST   -Y,R30
0005f3 e0a0      	LDI  R26,LOW(0)
0005f4 940e 0a3d 	CALL _glcd_putimagef
                 ; 0001 008C 
                 ; 0001 008D }
0005f6 9508      	RET
                 ; .FEND
                 ;
                 ;void Question_03(){
                 ; 0001 008F void Question_03(){
                 _Question_03:
                 ; .FSTART _Question_03
                 ; 0001 0090 
                 ; 0001 0091 
                 ; 0001 0092         second++;
0005f7 e9a1      	LDI  R26,LOW(_second)
0005f8 e0b1      	LDI  R27,HIGH(_second)
0005f9 940e 0ef7 	CALL SUBOPT_0x3
                 ; 0001 0093         if(second == 60)
0005fb 91a0 0191 	LDS  R26,_second
0005fd 91b0 0192 	LDS  R27,_second+1
0005ff 97dc      	SBIW R26,60
000600 f449      	BRNE _0x2001E
                 ; 0001 0094         {
                 ; 0001 0095             minute++;
000601 e9a3      	LDI  R26,LOW(_minute)
000602 e0b1      	LDI  R27,HIGH(_minute)
000603 940e 0ef7 	CALL SUBOPT_0x3
                 ; 0001 0096             second = 0;
000605 e0e0      	LDI  R30,LOW(0)
000606 93e0 0191 	STS  _second,R30
000608 93e0 0192 	STS  _second+1,R30
                 ; 0001 0097         }
                 ; 0001 0098         if(minute == 60)
                 _0x2001E:
00060a 91a0 0193 	LDS  R26,_minute
00060c 91b0 0194 	LDS  R27,_minute+1
00060e 97dc      	SBIW R26,60
00060f f449      	BRNE _0x2001F
                 ; 0001 0099         {
                 ; 0001 009A             hour++;
000610 e9a5      	LDI  R26,LOW(_hour)
000611 e0b1      	LDI  R27,HIGH(_hour)
000612 940e 0ef7 	CALL SUBOPT_0x3
                 ; 0001 009B             minute = 0;
000614 e0e0      	LDI  R30,LOW(0)
000615 93e0 0193 	STS  _minute,R30
000617 93e0 0194 	STS  _minute+1,R30
                 ; 0001 009C         }
                 ; 0001 009D         if(hour == 12){
                 _0x2001F:
000619 91a0 0195 	LDS  R26,_hour
00061b 91b0 0196 	LDS  R27,_hour+1
00061d 971c      	SBIW R26,12
00061e f429      	BRNE _0x20020
                 ; 0001 009E             hour = 0;
00061f e0e0      	LDI  R30,LOW(0)
000620 93e0 0195 	STS  _hour,R30
000622 93e0 0196 	STS  _hour+1,R30
                 ; 0001 009F 
                 ; 0001 00A0         }
                 ; 0001 00A1 
                 ; 0001 00A2         glcd_clear();
                 _0x20020:
000624 d13c      	RCALL _glcd_clear
                 ; 0001 00A3 
                 ; 0001 00A4         glcd_circle(63, 31, 30);
000625 940e 0f07 	CALL SUBOPT_0x6
000627 e1ae      	LDI  R26,LOW(30)
000628 940e 0d6d 	CALL _glcd_circle
                 ; 0001 00A5         glcd_setlinestyle(3,4);
00062a e0e3      	LDI  R30,LOW(3)
                +
00062b 93e0 0168+STS _glcd_state + ( 8 ) , R30
                 	__PUTB1MN _glcd_state,8
00062d e0e4      	LDI  R30,LOW(4)
                +
00062e 93e0 0169+STS _glcd_state + ( 9 ) , R30
                 	__PUTB1MN _glcd_state,9
                 ; 0001 00A6         glcd_circle(63, 31, 2);
000630 940e 0f07 	CALL SUBOPT_0x6
000632 e0a2      	LDI  R26,LOW(2)
000633 940e 0d6d 	CALL _glcd_circle
                 ; 0001 00A7         glcd_setlinestyle(1,GLCD_LINE_SOLID);
000635 940e 0f0c 	CALL SUBOPT_0x7
                 ; 0001 00A8 
                 ; 0001 00A9         x = 25*cos(second*6);
000637 940e 0f13 	CALL SUBOPT_0x8
000639 940e 0e4a 	CALL _cos
00063b 940e 0f22 	CALL SUBOPT_0x9
00063d 940e 0f29 	CALL SUBOPT_0xA
                 ; 0001 00AA         y = 25*sin(second*6);
00063f 940e 0f13 	CALL SUBOPT_0x8
000641 940e 0dbe 	CALL _sin
000643 940e 0f22 	CALL SUBOPT_0x9
000645 940e 0f30 	CALL SUBOPT_0xB
                 ; 0001 00AB 
                 ; 0001 00AC         glcd_line(63,31,x+63,31-y);
000647 940e 0f37 	CALL SUBOPT_0xC
                 ; 0001 00AD 
                 ; 0001 00AE         x = 20*cos(minute*6);
000649 940e 0f42 	CALL SUBOPT_0xD
00064b 940e 0e4a 	CALL _cos
00064d 940e 0f51 	CALL SUBOPT_0xE
00064f 940e 0f29 	CALL SUBOPT_0xA
                 ; 0001 00AF         y = 20*sin(minute*6);
000651 940e 0f42 	CALL SUBOPT_0xD
000653 940e 0dbe 	CALL _sin
000655 940e 0f51 	CALL SUBOPT_0xE
000657 940e 0f30 	CALL SUBOPT_0xB
                 ; 0001 00B0 
                 ; 0001 00B1         glcd_line(63,31,x+63,31-y);
000659 940e 0f37 	CALL SUBOPT_0xC
                 ; 0001 00B2 
                 ; 0001 00B3         x = 15*cos(hour*6);
00065b 940e 0f58 	CALL SUBOPT_0xF
00065d 940e 0e4a 	CALL _cos
00065f 940e 0f67 	CALL SUBOPT_0x10
000661 940e 0f29 	CALL SUBOPT_0xA
                 ; 0001 00B4         y = 15*sin(hour*6);
000663 940e 0f58 	CALL SUBOPT_0xF
000665 940e 0dbe 	CALL _sin
000667 940e 0f67 	CALL SUBOPT_0x10
000669 940e 0f30 	CALL SUBOPT_0xB
                 ; 0001 00B5 
                 ; 0001 00B6         glcd_line(63,31,x+63,31-y);
00066b 940e 0f37 	CALL SUBOPT_0xC
                 ; 0001 00B7 }
00066d 9508      	RET
                 ; .FEND
                 ;
                 ;
                 ;void TimerInit(){
                 ; 0001 00BA void TimerInit(){
                 _TimerInit:
                 ; .FSTART _TimerInit
                 ; 0001 00BB 
                 ; 0001 00BC 
                 ; 0001 00BD     // Timer/Counter 1 initialization
                 ; 0001 00BE     // Clock source: System Clock
                 ; 0001 00BF     // Clock value: 31.250 kHz
                 ; 0001 00C0     // Mode: Normal top=0xFFFF
                 ; 0001 00C1     // OC1A output: Disconnected
                 ; 0001 00C2     // OC1B output: Disconnected
                 ; 0001 00C3     // Noise Canceler: Off
                 ; 0001 00C4     // Input Capture on Falling Edge
                 ; 0001 00C5     // Timer Period: 1 s
                 ; 0001 00C6     // Timer1 Overflow Interrupt: On
                 ; 0001 00C7     // Input Capture Interrupt: Off
                 ; 0001 00C8     // Compare A Match Interrupt: Off
                 ; 0001 00C9     // Compare B Match Interrupt: Off
                 ; 0001 00CA     TCCR1A=(0<<COM1A1) | (0<<COM1A0) | (0<<COM1B1) | (0<<COM1B0) | (0<<WGM11) | (0<<WGM10);
00066e e0e0      	LDI  R30,LOW(0)
00066f bdef      	OUT  0x2F,R30
                 ; 0001 00CB     TCCR1B=(0<<ICNC1) | (0<<ICES1) | (0<<WGM13) | (0<<WGM12) | (1<<CS12) | (0<<CS11) | (0<<CS10);
000670 e0e4      	LDI  R30,LOW(4)
000671 bdee      	OUT  0x2E,R30
                 ; 0001 00CC     TCNT1H=0x85;
000672 e8e5      	LDI  R30,LOW(133)
000673 bded      	OUT  0x2D,R30
                 ; 0001 00CD     TCNT1L=0xEE;
000674 eeee      	LDI  R30,LOW(238)
000675 bdec      	OUT  0x2C,R30
                 ; 0001 00CE     ICR1H=0x00;
000676 e0e0      	LDI  R30,LOW(0)
000677 bde7      	OUT  0x27,R30
                 ; 0001 00CF     ICR1L=0x00;
000678 bde6      	OUT  0x26,R30
                 ; 0001 00D0     OCR1AH=0x00;
000679 bdeb      	OUT  0x2B,R30
                 ; 0001 00D1     OCR1AL=0x00;
00067a bdea      	OUT  0x2A,R30
                 ; 0001 00D2     OCR1BH=0x00;
00067b bde9      	OUT  0x29,R30
                 ; 0001 00D3     OCR1BL=0x00;
00067c bde8      	OUT  0x28,R30
                 ; 0001 00D4 
                 ; 0001 00D5     // Timer(s)/Counter(s) Interrupt(s) initialization
                 ; 0001 00D6     TIMSK=(0<<OCIE2) | (0<<TOIE2) | (0<<TICIE1) | (0<<OCIE1A) | (0<<OCIE1B) | (1<<TOIE1) | (0<<OCIE0) | (0<<TOIE0);
00067d e0e4      	LDI  R30,LOW(4)
00067e bfe9      	OUT  0x39,R30
                 ; 0001 00D7 
                 ; 0001 00D8 
                 ; 0001 00D9 }
00067f 9508      	RET
                 ; .FEND
                 ;/****************************************************************************
                 ;Image data created by the LCD Vision V1.05 font & image editor/converter
                 ;(C) Copyright 2011-2013 Pavel Haiduc, HP InfoTech s.r.l.
                 ;http://www.hpinfotech.com
                 ;
                 ;Graphic LCD controller: KS0108 128x64 CS1,CS2
                 ;Image width: 128 pixels
                 ;Image height: 64 pixels
                 ;Color depth: 1 bits/pixel
                 ;Imported image file name: ds.bmp
                 ;
                 ;Exported monochrome image data size:
                 ;1028 bytes for displays organized as horizontal rows of bytes
                 ;1028 bytes for displays organized as rows of vertical bytes.
                 ;****************************************************************************/
                 ;
                 ;flash unsigned char ds[]=
                 ;{
                 ;/* Image width: 128 pixels */
                 ;0x80, 0x00,
                 ;/* Image height: 64 pixels */
                 ;0x40, 0x00,
                 ;#ifndef _GLCD_DATA_BYTEY_
                 ;/* Image data for monochrome displays organized
                 ;   as horizontal rows of bytes */
                 ;0xFF, 0xFF, 0xFF, 0xFF, 0xFF, 0xFF, 0xFF, 0xFF,
                 ;0xFF, 0xFF, 0xFF, 0xFF, 0xFF, 0xFF, 0xFF, 0xFF,
                 ;0xFF, 0xFF, 0xFF, 0xFF, 0xFF, 0xFF, 0xFF, 0xFF,
                 ;0xFF, 0xFF, 0xFF, 0xFF, 0xFF, 0xFF, 0xFF, 0xFF,
                 ;0xFF, 0xFF, 0xFF, 0xFF, 0xFF, 0xFF, 0xFF, 0xFF,
                 ;0xFF, 0xFF, 0xFF, 0xFF, 0xFF, 0xFF, 0xFF, 0xFF,
                 ;0xFF, 0xFF, 0xFF, 0xFF, 0xFF, 0xFF, 0xFF, 0xFF,
                 ;0xFF, 0xFF, 0xFF, 0xFF, 0xFF, 0xFF, 0xFF, 0xFF,
                 ;0xFF, 0xFF, 0xFF, 0xFF, 0xFF, 0xFF, 0xFF, 0xFF,
                 ;0xFF, 0xFF, 0xFF, 0xFF, 0xFF, 0xFF, 0xFF, 0xFF,
                 ;0xFF, 0xFF, 0xFF, 0xFF, 0xFF, 0xFF, 0xFF, 0xFF,
                 ;0xFF, 0xFF, 0xFF, 0xFF, 0xFF, 0xFF, 0xFF, 0xFF,
                 ;0xFF, 0xFF, 0xFF, 0xFF, 0xFF, 0xFF, 0xFF, 0xFF,
                 ;0xFF, 0xFF, 0xFF, 0xFF, 0xFF, 0xFF, 0xFF, 0xFF,
                 ;0xFF, 0xFF, 0xFF, 0xFF, 0xFF, 0xFF, 0xFF, 0xFF,
                 ;0xFF, 0xFF, 0xFF, 0xFF, 0xFF, 0xFF, 0xFF, 0xFF,
                 ;0xFF, 0xFF, 0xFF, 0xFF, 0xFF, 0xFF, 0xFF, 0xFF,
                 ;0xFF, 0xFF, 0xFF, 0xFF, 0xFF, 0xFF, 0xFF, 0xFF,
                 ;0xFF, 0xFF, 0xFF, 0xFF, 0xFF, 0xFF, 0xFF, 0xFF,
                 ;0xFF, 0xFF, 0xFF, 0xFF, 0xFF, 0xFF, 0xFF, 0xFF,
                 ;0xFF, 0xFF, 0xFF, 0xFF, 0xFF, 0xFF, 0xFF, 0xFF,
                 ;0xFF, 0xFF, 0xFF, 0xFF, 0xFF, 0xFF, 0xFF, 0xFF,
                 ;0xFF, 0xFF, 0xFF, 0xFF, 0xFF, 0xFF, 0xFF, 0xFF,
                 ;0xFF, 0xFF, 0xFF, 0xFF, 0xFF, 0xFF, 0xFF, 0xFF,
                 ;0xFF, 0xFF, 0xFF, 0xFF, 0xFF, 0xFF, 0xFF, 0xFF,
                 ;0xFF, 0xFF, 0xFF, 0xFF, 0xFF, 0xFF, 0xFF, 0xFF,
                 ;0xFF, 0xFF, 0xFF, 0xFF, 0xFF, 0xFF, 0xFF, 0xFF,
                 ;0xFF, 0xFF, 0xFF, 0xFF, 0xFF, 0xFF, 0xFF, 0xFF,
                 ;0xFF, 0xFF, 0xFF, 0xFF, 0xFF, 0xFF, 0xFF, 0xFF,
                 ;0xFF, 0xFF, 0xFF, 0xFF, 0xFF, 0xFF, 0xFF, 0xFF,
                 ;0xFF, 0xFF, 0xFF, 0xFF, 0xFF, 0xFF, 0xFF, 0xFF,
                 ;0xFF, 0xFF, 0xFF, 0xFF, 0xFF, 0xFF, 0xFF, 0xFF,
                 ;0xFF, 0xFF, 0xFF, 0xFF, 0xFF, 0xFF, 0xFF, 0xFF,
                 ;0xFF, 0xFF, 0xFF, 0xFF, 0xFF, 0xFF, 0xFF, 0xFF,
                 ;0xFF, 0xFF, 0xFF, 0xFF, 0xFF, 0xFF, 0xFF, 0xFF,
                 ;0xFF, 0xFF, 0xFF, 0xFF, 0xFF, 0xFF, 0xFF, 0xFF,
                 ;0xFF, 0xFF, 0xFF, 0xFF, 0xFF, 0xFF, 0xFF, 0xFF,
                 ;0xFF, 0xFF, 0xFF, 0xFF, 0xFF, 0xFF, 0xFF, 0xFF,
                 ;0xFF, 0xFF, 0xFF, 0xFF, 0xFF, 0xFF, 0xFF, 0xFF,
                 ;0xFF, 0xFF, 0xFF, 0xFF, 0xFF, 0xFF, 0xFF, 0xFF,
                 ;0xFF, 0xFF, 0xFF, 0xFF, 0xFF, 0xFF, 0xFF, 0xFF,
                 ;0xFF, 0xFF, 0xFF, 0xFF, 0xFF, 0xFF, 0xFF, 0xFF,
                 ;0xFF, 0xFF, 0xFF, 0xFF, 0xFF, 0xFF, 0xFF, 0xFF,
                 ;0xFF, 0xFF, 0xFF, 0xFF, 0xFF, 0xFF, 0xFF, 0xFF,
                 ;0xFF, 0xFF, 0xFF, 0xFF, 0xFF, 0xFF, 0xFF, 0xFF,
                 ;0xFF, 0xFF, 0xFF, 0xFF, 0xFF, 0xFF, 0xFF, 0xFF,
                 ;0xFF, 0xFF, 0xFF, 0xFF, 0xFF, 0xFF, 0xFF, 0xFF,
                 ;0xFF, 0xFF, 0xFF, 0xFF, 0xFF, 0xFF, 0xFF, 0xFF,
                 ;0xFF, 0xFF, 0xFF, 0xFF, 0xFF, 0xFF, 0xFF, 0xFF,
                 ;0xC3, 0xFF, 0xFF, 0xFF, 0xFF, 0xFF, 0xFF, 0xFF,
                 ;0xFF, 0xFF, 0xFF, 0xFF, 0xFF, 0xFF, 0xFF, 0xFF,
                 ;0x81, 0xFF, 0xFF, 0xFF, 0xFF, 0xFF, 0xFF, 0xFF,
                 ;0xFF, 0xFF, 0xFF, 0xFF, 0xFF, 0xFF, 0xFF, 0xFF,
                 ;0x00, 0xFF, 0xFF, 0xFF, 0xFF, 0xFF, 0xFF, 0xFF,
                 ;0xFF, 0xFF, 0xFF, 0xFF, 0xFF, 0xFF, 0xFF, 0x3F,
                 ;0x00, 0xFE, 0xFF, 0xFF, 0xFF, 0xFF, 0xFF, 0xFF,
                 ;0xFF, 0xFF, 0xFF, 0xFF, 0xFF, 0xFF, 0xFF, 0x1F,
                 ;0x02, 0xFC, 0xFF, 0xFF, 0xFF, 0xFF, 0xFF, 0xFF,
                 ;0xFF, 0xFF, 0xFF, 0xFF, 0xFF, 0xFF, 0xFF, 0x0F,
                 ;0x01, 0xF0, 0xFF, 0xFF, 0xFF, 0xFF, 0xFF, 0xFF,
                 ;0xFF, 0xFF, 0xFF, 0xFF, 0xFF, 0xFF, 0xFF, 0x07,
                 ;0x00, 0xE0, 0xFF, 0xFF, 0xFF, 0xFF, 0xFF, 0xFF,
                 ;0xFF, 0xFF, 0xFF, 0xFF, 0xFF, 0xFF, 0xFF, 0x07,
                 ;0x80, 0xE1, 0xFF, 0xFF, 0xFF, 0xFF, 0xFF, 0xFF,
                 ;0xFF, 0xFF, 0xFF, 0xFF, 0xFF, 0xFF, 0xFF, 0x0F,
                 ;0x80, 0x80, 0xFF, 0xFF, 0xFF, 0xFF, 0xFF, 0xFF,
                 ;0xFF, 0xFF, 0xFF, 0xFF, 0xFF, 0xFF, 0xFF, 0x0F,
                 ;0x00, 0x80, 0xFF, 0xFF, 0xFF, 0xFF, 0xFF, 0xFF,
                 ;0xFF, 0xFF, 0xFF, 0xFF, 0xFF, 0xFF, 0xFF, 0x1F,
                 ;0x80, 0x00, 0xFF, 0xFF, 0xFF, 0xFF, 0xFF, 0xFF,
                 ;0xFF, 0xFF, 0xFF, 0xFF, 0xFF, 0xFF, 0xFF, 0x3F,
                 ;0xC0, 0x80, 0xFF, 0xFF, 0xFF, 0xFF, 0xFF, 0xFF,
                 ;0xFF, 0xFF, 0xFF, 0xFF, 0xFF, 0xFF, 0xFF, 0x7F,
                 ;0x00, 0xC0, 0xFF, 0xFF, 0xFF, 0xFF, 0xFF, 0xFF,
                 ;0xFF, 0xFF, 0xFF, 0xFF, 0xFF, 0xFF, 0xFF, 0xFF,
                 ;0x41, 0xF0, 0xFF, 0xFF, 0xFF, 0xFF, 0xFF, 0xFF,
                 ;0xFF, 0xFF, 0xFF, 0xFF, 0xFF, 0xFF, 0xFF, 0xFF,
                 ;0xC3, 0xFC, 0xFF, 0xFF, 0xFF, 0xFF, 0xFF, 0xFF,
                 ;0xFF, 0xFF, 0xFF, 0xFF, 0xFF, 0xFF, 0xFF, 0xFF,
                 ;0x0F, 0xFE, 0xFF, 0xFF, 0xFF, 0xFF, 0xFF, 0xFF,
                 ;0xFF, 0xFF, 0xFF, 0xFF, 0xFF, 0xFF, 0xFF, 0xFF,
                 ;0xCF, 0xFF, 0xFF, 0xFF, 0xFF, 0xFF, 0xFF, 0xFF,
                 ;0xFF, 0xFF, 0xFF, 0xFF, 0xFF, 0xFF, 0xFF, 0xFF,
                 ;0xFF, 0xFF, 0xFF, 0xFF, 0xFF, 0xFF, 0xFF, 0xFF,
                 ;0xFF, 0xFF, 0xFF, 0xFF, 0xFF, 0xFF, 0xFF, 0xFF,
                 ;0xFF, 0xFF, 0xFF, 0xFF, 0xFF, 0xFF, 0xFF, 0xFF,
                 ;0xFF, 0xFF, 0xFF, 0xFF, 0xFF, 0xFF, 0xFF, 0xFF,
                 ;0xFF, 0xFF, 0xFF, 0xFF, 0xFF, 0xFF, 0xFF, 0xFF,
                 ;0xFF, 0xFF, 0xFF, 0xFF, 0xFF, 0xFF, 0xFF, 0xFF,
                 ;0xFF, 0xFF, 0xFF, 0xFF, 0xFF, 0xFF, 0xFF, 0xFF,
                 ;0xFF, 0xFF, 0xFF, 0xFF, 0xFF, 0xFF, 0xFF, 0xFF,
                 ;0xFF, 0xFF, 0xFF, 0xFF, 0xFF, 0xFF, 0xFF, 0xFF,
                 ;0xFF, 0xFF, 0xFF, 0xFF, 0xFF, 0xFF, 0xFF, 0xFF,
                 ;0xFF, 0xFF, 0xFF, 0xFF, 0xFF, 0xFF, 0xFF, 0xFF,
                 ;0xFF, 0xFF, 0xFF, 0xFF, 0xFF, 0xFF, 0xFF, 0xFF,
                 ;0xFF, 0xFF, 0xFF, 0xFF, 0xFF, 0xFF, 0xFF, 0xFF,
                 ;0xFF, 0xFF, 0xFF, 0xFF, 0xFF, 0xFF, 0xFF, 0xFF,
                 ;0xFF, 0xFF, 0xFF, 0xFF, 0xFF, 0xFF, 0xFF, 0xFF,
                 ;0xFF, 0xFF, 0xFF, 0xFF, 0xFF, 0xFF, 0xFF, 0xFF,
                 ;0xFF, 0xFF, 0xFF, 0xFF, 0xFF, 0xFF, 0xFF, 0xFF,
                 ;0xFF, 0xFF, 0xFF, 0xFF, 0xFF, 0xFF, 0xFF, 0xFF,
                 ;0xFF, 0xFF, 0xFF, 0xFF, 0xFF, 0xFF, 0xFF, 0xFF,
                 ;0xFF, 0xFF, 0xFF, 0xFF, 0xFF, 0xFF, 0xFF, 0xFF,
                 ;0xFF, 0xFF, 0xFF, 0xFF, 0xFF, 0xFF, 0xFF, 0xFF,
                 ;0xFF, 0xFF, 0xFF, 0xFF, 0xFF, 0xFF, 0xFF, 0xFF,
                 ;0xFF, 0xFF, 0xFF, 0xFF, 0xFF, 0xFF, 0xFF, 0xFF,
                 ;0xFF, 0xFF, 0xFF, 0xFF, 0xFF, 0xFF, 0xFF, 0xFF,
                 ;0xFF, 0xFF, 0xFF, 0xFF, 0xFF, 0xFF, 0xFF, 0xFF,
                 ;0xFF, 0xFF, 0xFF, 0xFF, 0xFF, 0xFF, 0xFF, 0xFF,
                 ;0xFF, 0xFF, 0xFF, 0xFF, 0xFF, 0xFF, 0xFF, 0xFF,
                 ;0xFF, 0xFF, 0xFF, 0xFF, 0xFF, 0xFF, 0xFF, 0xFF,
                 ;0xFF, 0xFF, 0xFF, 0xFF, 0xFF, 0xFF, 0xFF, 0xFF,
                 ;0xFF, 0xFF, 0xFF, 0xFF, 0xFF, 0xFF, 0xFF, 0xFF,
                 ;0xFF, 0xFF, 0xFF, 0xFF, 0xFF, 0xFF, 0xFF, 0xFF,
                 ;0xFF, 0xFF, 0xFF, 0xFF, 0xFF, 0xFF, 0xFF, 0xFF,
                 ;0xFF, 0xFF, 0xFF, 0xFF, 0xFF, 0xFF, 0xFF, 0xFF,
                 ;0xFF, 0xFF, 0xFF, 0xFF, 0xFF, 0xFF, 0xFF, 0xFF,
                 ;0xFF, 0xFF, 0xFF, 0xFF, 0xFF, 0xFF, 0xFF, 0xFF,
                 ;0xFF, 0xFF, 0xFF, 0xFF, 0xFF, 0xFF, 0xFF, 0xFF,
                 ;0xFF, 0xFF, 0xFF, 0xFF, 0xFF, 0xFF, 0xFF, 0xFF,
                 ;0xFF, 0xFF, 0xFF, 0xFF, 0xFF, 0xFF, 0xFF, 0xFF,
                 ;0xFF, 0xFF, 0xFF, 0xFF, 0xFF, 0xFF, 0xFF, 0xFF,
                 ;0xFF, 0xFF, 0xFF, 0xFF, 0xFF, 0xFF, 0xFF, 0xFF,
                 ;0xFF, 0xFF, 0xFF, 0xFF, 0xFF, 0xFF, 0xFF, 0xFF,
                 ;0xFF, 0xFF, 0xFF, 0xFF, 0xFF, 0xFF, 0xFF, 0xFF,
                 ;0xFF, 0xFF, 0xFF, 0xFF, 0xFF, 0xFF, 0xFF, 0xFF,
                 ;0xFF, 0xFF, 0xFF, 0xFF, 0xFF, 0xFF, 0xFF, 0xFF,
                 ;0xFF, 0xFF, 0xFF, 0xFF, 0xFF, 0xFF, 0xFF, 0xFF,
                 ;#else
                 ;/* Image data for monochrome displays organized
                 ;   as rows of vertical bytes */
                 ;0xFF, 0xFF, 0xFF, 0xFF, 0xFF, 0xFF, 0xFF, 0xFF,
                 ;0xFF, 0xFF, 0xFF, 0xFF, 0xFF, 0xFF, 0xFF, 0xFF,
                 ;0xFF, 0xFF, 0xFF, 0xFF, 0xFF, 0xFF, 0xFF, 0xFF,
                 ;0xFF, 0xFF, 0xFF, 0xFF, 0xFF, 0xFF, 0xFF, 0xFF,
                 ;0xFF, 0xFF, 0xFF, 0xFF, 0xFF, 0xFF, 0xFF, 0xFF,
                 ;0xFF, 0xFF, 0xFF, 0xFF, 0xFF, 0xFF, 0xFF, 0xFF,
                 ;0xFF, 0xFF, 0xFF, 0xFF, 0xFF, 0xFF, 0xFF, 0xFF,
                 ;0xFF, 0xFF, 0xFF, 0xFF, 0xFF, 0xFF, 0xFF, 0xFF,
                 ;0xFF, 0xFF, 0xFF, 0xFF, 0xFF, 0xFF, 0xFF, 0xFF,
                 ;0xFF, 0xFF, 0xFF, 0xFF, 0xFF, 0xFF, 0xFF, 0xFF,
                 ;0xFF, 0xFF, 0xFF, 0xFF, 0xFF, 0xFF, 0xFF, 0xFF,
                 ;0xFF, 0xFF, 0xFF, 0xFF, 0xFF, 0xFF, 0xFF, 0xFF,
                 ;0xFF, 0xFF, 0xFF, 0xFF, 0xFF, 0xFF, 0xFF, 0xFF,
                 ;0xFF, 0xFF, 0xFF, 0xFF, 0xFF, 0xFF, 0xFF, 0xFF,
                 ;0xFF, 0xFF, 0xFF, 0xFF, 0xFF, 0xFF, 0xFF, 0xFF,
                 ;0xFF, 0xFF, 0xFF, 0xFF, 0xFF, 0xFF, 0xFF, 0xFF,
                 ;0xFF, 0xFF, 0xFF, 0xFF, 0xFF, 0xFF, 0xFF, 0xFF,
                 ;0xFF, 0xFF, 0xFF, 0xFF, 0xFF, 0xFF, 0xFF, 0xFF,
                 ;0xFF, 0xFF, 0xFF, 0xFF, 0xFF, 0xFF, 0xFF, 0xFF,
                 ;0xFF, 0xFF, 0xFF, 0xFF, 0xFF, 0xFF, 0xFF, 0xFF,
                 ;0xFF, 0xFF, 0xFF, 0xFF, 0xFF, 0xFF, 0xFF, 0xFF,
                 ;0xFF, 0xFF, 0xFF, 0xFF, 0xFF, 0xFF, 0xFF, 0xFF,
                 ;0xFF, 0xFF, 0xFF, 0xFF, 0xFF, 0xFF, 0xFF, 0xFF,
                 ;0xFF, 0xFF, 0xFF, 0xFF, 0xFF, 0xFF, 0xFF, 0xFF,
                 ;0xFF, 0xFF, 0xFF, 0xFF, 0xFF, 0xFF, 0xFF, 0xFF,
                 ;0xFF, 0xFF, 0xFF, 0xFF, 0xFF, 0xFF, 0xFF, 0xFF,
                 ;0xFF, 0xFF, 0xFF, 0xFF, 0xFF, 0xFF, 0xFF, 0xFF,
                 ;0xFF, 0xFF, 0xFF, 0xFF, 0xFF, 0xFF, 0xFF, 0xFF,
                 ;0xFF, 0xFF, 0xFF, 0xFF, 0xFF, 0xFF, 0xFF, 0xFF,
                 ;0xFF, 0xFF, 0xFF, 0xFF, 0xFF, 0xFF, 0xFF, 0xFF,
                 ;0xFF, 0xFF, 0xFF, 0xFF, 0xFF, 0xFF, 0xFF, 0xFF,
                 ;0xFF, 0xFF, 0xFF, 0xFF, 0xFF, 0xFF, 0xFF, 0xFF,
                 ;0xFF, 0xFF, 0xFF, 0xFF, 0xFF, 0xFF, 0xFF, 0xFF,
                 ;0xFF, 0xFF, 0xFF, 0xFF, 0xFF, 0xFF, 0xFF, 0xFF,
                 ;0xFF, 0xFF, 0xFF, 0xFF, 0xFF, 0xFF, 0xFF, 0xFF,
                 ;0xFF, 0xFF, 0xFF, 0xFF, 0xFF, 0xFF, 0xFF, 0xFF,
                 ;0xFF, 0xFF, 0xFF, 0xFF, 0xFF, 0xFF, 0xFF, 0xFF,
                 ;0xFF, 0xFF, 0xFF, 0xFF, 0xFF, 0xFF, 0xFF, 0xFF,
                 ;0xFF, 0xFF, 0xFF, 0xFF, 0xFF, 0xFF, 0xFF, 0xFF,
                 ;0xFF, 0xFF, 0xFF, 0xFF, 0xFF, 0xFF, 0xFF, 0xFF,
                 ;0xFF, 0xFF, 0xFF, 0xFF, 0xFF, 0xFF, 0xFF, 0xFF,
                 ;0xFF, 0xFF, 0xFF, 0xFF, 0xFF, 0xFF, 0xFF, 0xFF,
                 ;0xFF, 0xFF, 0xFF, 0xFF, 0xFF, 0xFF, 0xFF, 0xFF,
                 ;0xFF, 0xFF, 0xFF, 0xFF, 0xFF, 0xFF, 0xFF, 0xFF,
                 ;0xFF, 0xFF, 0xFF, 0xFF, 0xFF, 0xFF, 0xFF, 0xFF,
                 ;0xFF, 0xFF, 0xFF, 0xFF, 0xFF, 0xFF, 0xFF, 0xFF,
                 ;0xFF, 0xFF, 0xFF, 0xFF, 0xFF, 0xFF, 0xFF, 0xFF,
                 ;0xFF, 0xFF, 0xFF, 0xFF, 0xFF, 0xFF, 0xFF, 0xFF,
                 ;0xFF, 0xFF, 0xFF, 0xFF, 0xFF, 0xFF, 0xFF, 0xFF,
                 ;0xFF, 0xFF, 0xFF, 0xFF, 0xFF, 0xFF, 0xFF, 0xFF,
                 ;0xFF, 0xFF, 0xFF, 0xFF, 0xFF, 0xFF, 0xFF, 0xFF,
                 ;0xFF, 0xFF, 0xFF, 0xFF, 0xFF, 0xFF, 0xFF, 0xFF,
                 ;0xFF, 0xFF, 0xFF, 0xFF, 0xFF, 0xFF, 0xFF, 0xFF,
                 ;0xFF, 0xFF, 0xFF, 0xFF, 0xFF, 0xFF, 0xFF, 0xFF,
                 ;0xFF, 0xFF, 0xFF, 0xFF, 0xFF, 0xFF, 0xFF, 0xFF,
                 ;0xFF, 0xFF, 0xFF, 0x3F, 0x1F, 0x0F, 0x07, 0x07,
                 ;0x23, 0x11, 0x00, 0x00, 0x00, 0x00, 0x01, 0x83,
                 ;0x87, 0x0F, 0x1F, 0x1F, 0x3F, 0xFF, 0xFF, 0xFF,
                 ;0xFF, 0xFF, 0xFF, 0xFF, 0xFF, 0xFF, 0xFF, 0xFF,
                 ;0xFF, 0xFF, 0xFF, 0xFF, 0xFF, 0xFF, 0xFF, 0xFF,
                 ;0xFF, 0xFF, 0xFF, 0xFF, 0xFF, 0xFF, 0xFF, 0xFF,
                 ;0xFF, 0xFF, 0xFF, 0xFF, 0xFF, 0xFF, 0xFF, 0xFF,
                 ;0xFF, 0xFF, 0xFF, 0xFF, 0xFF, 0xFF, 0xFF, 0xFF,
                 ;0xFF, 0xFF, 0xFF, 0xFF, 0xFF, 0xFF, 0xFF, 0xFF,
                 ;0xFF, 0xFF, 0xFF, 0xFF, 0xFF, 0xFF, 0xFF, 0xFF,
                 ;0xFF, 0xFF, 0xFF, 0xFF, 0xFF, 0xFF, 0xFF, 0xFF,
                 ;0xFF, 0xFF, 0xFF, 0xFF, 0xFF, 0xFF, 0xFF, 0xFF,
                 ;0xFF, 0xFF, 0xFF, 0xFF, 0xFF, 0xFF, 0xFF, 0xFF,
                 ;0xFF, 0xFF, 0xFF, 0xFF, 0xFF, 0xFF, 0xFF, 0xFF,
                 ;0xFF, 0xFF, 0xFF, 0xFF, 0xFF, 0xFF, 0xFF, 0xFF,
                 ;0xFF, 0xFF, 0xFF, 0xFF, 0xFF, 0xFF, 0xFF, 0xFF,
                 ;0xFF, 0xFF, 0xFF, 0xFF, 0xFC, 0xF8, 0xF0, 0xE0,
                 ;0xE0, 0xC0, 0x80, 0x80, 0x00, 0x00, 0x68, 0x4D,
                 ;0x00, 0x80, 0xC0, 0xC0, 0xE0, 0xE0, 0xF0, 0xFB,
                 ;0xFF, 0xFF, 0xFF, 0xFF, 0xFF, 0xFF, 0xFF, 0xFF,
                 ;0xFF, 0xFF, 0xFF, 0xFF, 0xFF, 0xFF, 0xFF, 0xFF,
                 ;0xFF, 0xFF, 0xFF, 0xFF, 0xFF, 0xFF, 0xFF, 0xFF,
                 ;0xFF, 0xFF, 0xFF, 0xFF, 0xFF, 0xFF, 0xFF, 0xFF,
                 ;0xFF, 0xFF, 0xFF, 0xFF, 0xFF, 0xFF, 0xFF, 0xFF,
                 ;0xFF, 0xFF, 0xFF, 0xFF, 0xFF, 0xFF, 0xFF, 0xFF,
                 ;0xFF, 0xFF, 0xFF, 0xFF, 0xFF, 0xFF, 0xFF, 0xFF,
                 ;0xFF, 0xFF, 0xFF, 0xFF, 0xFF, 0xFF, 0xFF, 0xFF,
                 ;0xFF, 0xFF, 0xFF, 0xFF, 0xFF, 0xFF, 0xFF, 0xFF,
                 ;0xFF, 0xFF, 0xFF, 0xFF, 0xFF, 0xFF, 0xFF, 0xFF,
                 ;0xFF, 0xFF, 0xFF, 0xFF, 0xFF, 0xFF, 0xFF, 0xFF,
                 ;0xFF, 0xFF, 0xFF, 0xFF, 0xFF, 0xFF, 0xFF, 0xFF,
                 ;0xFF, 0xFF, 0xFF, 0xFF, 0xFF, 0xFF, 0xFF, 0xFF,
                 ;0xFF, 0xFF, 0xFF, 0xFF, 0xFF, 0xFF, 0xFF, 0xFF,
                 ;0xFF, 0xFF, 0xFF, 0xFF, 0xFE, 0xFE, 0xFF, 0xFF,
                 ;0xFF, 0xFF, 0xFF, 0xFF, 0xFF, 0xFF, 0xFF, 0xFF,
                 ;0xFF, 0xFF, 0xFF, 0xFF, 0xFF, 0xFF, 0xFF, 0xFF,
                 ;0xFF, 0xFF, 0xFF, 0xFF, 0xFF, 0xFF, 0xFF, 0xFF,
                 ;0xFF, 0xFF, 0xFF, 0xFF, 0xFF, 0xFF, 0xFF, 0xFF,
                 ;0xFF, 0xFF, 0xFF, 0xFF, 0xFF, 0xFF, 0xFF, 0xFF,
                 ;0xFF, 0xFF, 0xFF, 0xFF, 0xFF, 0xFF, 0xFF, 0xFF,
                 ;0xFF, 0xFF, 0xFF, 0xFF, 0xFF, 0xFF, 0xFF, 0xFF,
                 ;0xFF, 0xFF, 0xFF, 0xFF, 0xFF, 0xFF, 0xFF, 0xFF,
                 ;0xFF, 0xFF, 0xFF, 0xFF, 0xFF, 0xFF, 0xFF, 0xFF,
                 ;0xFF, 0xFF, 0xFF, 0xFF, 0xFF, 0xFF, 0xFF, 0xFF,
                 ;0xFF, 0xFF, 0xFF, 0xFF, 0xFF, 0xFF, 0xFF, 0xFF,
                 ;0xFF, 0xFF, 0xFF, 0xFF, 0xFF, 0xFF, 0xFF, 0xFF,
                 ;0xFF, 0xFF, 0xFF, 0xFF, 0xFF, 0xFF, 0xFF, 0xFF,
                 ;0xFF, 0xFF, 0xFF, 0xFF, 0xFF, 0xFF, 0xFF, 0xFF,
                 ;0xFF, 0xFF, 0xFF, 0xFF, 0xFF, 0xFF, 0xFF, 0xFF,
                 ;0xFF, 0xFF, 0xFF, 0xFF, 0xFF, 0xFF, 0xFF, 0xFF,
                 ;0xFF, 0xFF, 0xFF, 0xFF, 0xFF, 0xFF, 0xFF, 0xFF,
                 ;0xFF, 0xFF, 0xFF, 0xFF, 0xFF, 0xFF, 0xFF, 0xFF,
                 ;0xFF, 0xFF, 0xFF, 0xFF, 0xFF, 0xFF, 0xFF, 0xFF,
                 ;0xFF, 0xFF, 0xFF, 0xFF, 0xFF, 0xFF, 0xFF, 0xFF,
                 ;0xFF, 0xFF, 0xFF, 0xFF, 0xFF, 0xFF, 0xFF, 0xFF,
                 ;0xFF, 0xFF, 0xFF, 0xFF, 0xFF, 0xFF, 0xFF, 0xFF,
                 ;0xFF, 0xFF, 0xFF, 0xFF, 0xFF, 0xFF, 0xFF, 0xFF,
                 ;0xFF, 0xFF, 0xFF, 0xFF, 0xFF, 0xFF, 0xFF, 0xFF,
                 ;0xFF, 0xFF, 0xFF, 0xFF, 0xFF, 0xFF, 0xFF, 0xFF,
                 ;0xFF, 0xFF, 0xFF, 0xFF, 0xFF, 0xFF, 0xFF, 0xFF,
                 ;0xFF, 0xFF, 0xFF, 0xFF, 0xFF, 0xFF, 0xFF, 0xFF,
                 ;0xFF, 0xFF, 0xFF, 0xFF, 0xFF, 0xFF, 0xFF, 0xFF,
                 ;0xFF, 0xFF, 0xFF, 0xFF, 0xFF, 0xFF, 0xFF, 0xFF,
                 ;0xFF, 0xFF, 0xFF, 0xFF, 0xFF, 0xFF, 0xFF, 0xFF,
                 ;0xFF, 0xFF, 0xFF, 0xFF, 0xFF, 0xFF, 0xFF, 0xFF,
                 ;0xFF, 0xFF, 0xFF, 0xFF, 0xFF, 0xFF, 0xFF, 0xFF,
                 ;0xFF, 0xFF, 0xFF, 0xFF, 0xFF, 0xFF, 0xFF, 0xFF,
                 ;0xFF, 0xFF, 0xFF, 0xFF, 0xFF, 0xFF, 0xFF, 0xFF,
                 ;0xFF, 0xFF, 0xFF, 0xFF, 0xFF, 0xFF, 0xFF, 0xFF,
                 ;0xFF, 0xFF, 0xFF, 0xFF, 0xFF, 0xFF, 0xFF, 0xFF,
                 ;0xFF, 0xFF, 0xFF, 0xFF, 0xFF, 0xFF, 0xFF, 0xFF,
                 ;0xFF, 0xFF, 0xFF, 0xFF, 0xFF, 0xFF, 0xFF, 0xFF,
                 ;0xFF, 0xFF, 0xFF, 0xFF, 0xFF, 0xFF, 0xFF, 0xFF,
                 ;#endif
                 ;};
                 ;
                 	#ifndef __SLEEP_DEFINED__
                 	#endif
                 
                 	.CSEG
                 _ks0108_enable_G100:
                 ; .FSTART _ks0108_enable_G100
000680 0000      	nop
000681 9a90      	SBI  0x12,0
000682 0000      	nop
000683 9508      	RET
                 ; .FEND
                 _ks0108_disable_G100:
                 ; .FSTART _ks0108_disable_G100
000684 9890      	CBI  0x12,0
000685 9894      	CBI  0x12,4
000686 9895      	CBI  0x12,5
000687 9508      	RET
                 ; .FEND
                 _ks0108_rdbus_G100:
                 ; .FSTART _ks0108_rdbus_G100
000688 931a      	ST   -Y,R17
000689 dff6      	RCALL _ks0108_enable_G100
00068a b313      	IN   R17,19
00068b 9890      	CBI  0x12,0
00068c 2fe1      	MOV  R30,R17
00068d 9119      	LD   R17,Y+
00068e 9508      	RET
                 ; .FEND
                 _ks0108_busy_G100:
                 ; .FSTART _ks0108_busy_G100
00068f 93aa      	ST   -Y,R26
000690 931a      	ST   -Y,R17
000691 e0e0      	LDI  R30,LOW(0)
000692 bbe4      	OUT  0x14,R30
000693 9a91      	SBI  0x12,1
000694 9892      	CBI  0x12,2
000695 81e9      	LDD  R30,Y+1
000696 5fef      	SUBI R30,-LOW(1)
000697 2f1e      	MOV  R17,R30
000698 ff10      	SBRS R17,0
000699 c002      	RJMP _0x2000003
00069a 9a94      	SBI  0x12,4
00069b c001      	RJMP _0x2000004
                 _0x2000003:
00069c 9894      	CBI  0x12,4
                 _0x2000004:
00069d ff11      	SBRS R17,1
00069e c002      	RJMP _0x2000005
00069f 9a95      	SBI  0x12,5
0006a0 c001      	RJMP _0x2000006
                 _0x2000005:
0006a1 9895      	CBI  0x12,5
                 _0x2000006:
                 _0x2000007:
0006a2 dfe5      	RCALL _ks0108_rdbus_G100
0006a3 78e0      	ANDI R30,LOW(0x80)
0006a4 f7e9      	BRNE _0x2000007
0006a5 8118      	LDD  R17,Y+0
0006a6 c11c      	RJMP _0x2100008
                 ; .FEND
                 _ks0108_wrcmd_G100:
                 ; .FSTART _ks0108_wrcmd_G100
0006a7 93aa      	ST   -Y,R26
0006a8 81a9      	LDD  R26,Y+1
0006a9 dfe5      	RCALL _ks0108_busy_G100
0006aa 940e 0f6e 	CALL SUBOPT_0x11
0006ac c116      	RJMP _0x2100008
                 ; .FEND
                 _ks0108_setloc_G100:
                 ; .FSTART _ks0108_setloc_G100
                +
0006ad 91e0 0198+LDS R30 , _ks0108_coord_G100 + ( 1 )
                 	__GETB1MN _ks0108_coord_G100,1
0006af 93ea      	ST   -Y,R30
0006b0 91e0 0197 	LDS  R30,_ks0108_coord_G100
0006b2 73ef      	ANDI R30,LOW(0x3F)
0006b3 64e0      	ORI  R30,0x40
0006b4 2fae      	MOV  R26,R30
0006b5 dff1      	RCALL _ks0108_wrcmd_G100
                +
0006b6 91e0 0198+LDS R30 , _ks0108_coord_G100 + ( 1 )
                 	__GETB1MN _ks0108_coord_G100,1
0006b8 93ea      	ST   -Y,R30
                +
0006b9 91e0 0199+LDS R30 , _ks0108_coord_G100 + ( 2 )
                 	__GETB1MN _ks0108_coord_G100,2
0006bb 6be8      	ORI  R30,LOW(0xB8)
0006bc 2fae      	MOV  R26,R30
0006bd dfe9      	RCALL _ks0108_wrcmd_G100
0006be 9508      	RET
                 ; .FEND
                 _ks0108_gotoxp_G100:
                 ; .FSTART _ks0108_gotoxp_G100
0006bf 93aa      	ST   -Y,R26
0006c0 81e9      	LDD  R30,Y+1
0006c1 93e0 0197 	STS  _ks0108_coord_G100,R30
0006c3 95e2      	SWAP R30
0006c4 70ef      	ANDI R30,0xF
0006c5 95e6      	LSR  R30
0006c6 95e6      	LSR  R30
                +
0006c7 93e0 0198+STS _ks0108_coord_G100 + ( 1 ) , R30
                 	__PUTB1MN _ks0108_coord_G100,1
0006c9 81e8      	LD   R30,Y
                +
0006ca 93e0 0199+STS _ks0108_coord_G100 + ( 2 ) , R30
                 	__PUTB1MN _ks0108_coord_G100,2
0006cc dfe0      	RCALL _ks0108_setloc_G100
0006cd c0f5      	RJMP _0x2100008
                 ; .FEND
                 _ks0108_nextx_G100:
                 ; .FSTART _ks0108_nextx_G100
0006ce 91a0 0197 	LDS  R26,_ks0108_coord_G100
0006d0 5faf      	SUBI R26,-LOW(1)
0006d1 93a0 0197 	STS  _ks0108_coord_G100,R26
0006d3 38a0      	CPI  R26,LOW(0x80)
0006d4 f018      	BRLO _0x200000A
0006d5 e0e0      	LDI  R30,LOW(0)
0006d6 93e0 0197 	STS  _ks0108_coord_G100,R30
                 _0x200000A:
0006d8 91e0 0197 	LDS  R30,_ks0108_coord_G100
0006da 73ef      	ANDI R30,LOW(0x3F)
0006db f431      	BRNE _0x200000B
0006dc 91e0 0197 	LDS  R30,_ks0108_coord_G100
0006de 93ea      	ST   -Y,R30
                +
0006df 91a0 0199+LDS R26 , _ks0108_coord_G100 + ( 2 )
                 	__GETB2MN _ks0108_coord_G100,2
0006e1 dfdd      	RCALL _ks0108_gotoxp_G100
                 _0x200000B:
0006e2 9508      	RET
                 ; .FEND
                 _ks0108_wrdata_G100:
                 ; .FSTART _ks0108_wrdata_G100
0006e3 93aa      	ST   -Y,R26
                +
0006e4 91a0 0198+LDS R26 , _ks0108_coord_G100 + ( 1 )
                 	__GETB2MN _ks0108_coord_G100,1
0006e6 dfa8      	RCALL _ks0108_busy_G100
0006e7 9a92      	SBI  0x12,2
0006e8 940e 0f6e 	CALL SUBOPT_0x11
0006ea 9621      	ADIW R28,1
0006eb 9508      	RET
                 ; .FEND
                 _ks0108_rddata_G100:
                 ; .FSTART _ks0108_rddata_G100
                +
0006ec 91a0 0198+LDS R26 , _ks0108_coord_G100 + ( 1 )
                 	__GETB2MN _ks0108_coord_G100,1
0006ee dfa0      	RCALL _ks0108_busy_G100
0006ef e0e0      	LDI  R30,LOW(0)
0006f0 bbe4      	OUT  0x14,R30
0006f1 9a91      	SBI  0x12,1
0006f2 9a92      	SBI  0x12,2
0006f3 df94      	RCALL _ks0108_rdbus_G100
0006f4 9508      	RET
                 ; .FEND
                 _ks0108_rdbyte_G100:
                 ; .FSTART _ks0108_rdbyte_G100
0006f5 93aa      	ST   -Y,R26
0006f6 81e9      	LDD  R30,Y+1
0006f7 93ea      	ST   -Y,R30
0006f8 81e9      	LDD  R30,Y+1
0006f9 940e 0f77 	CALL SUBOPT_0x12
0006fb dff0      	RCALL _ks0108_rddata_G100
0006fc dfb0      	RCALL _ks0108_setloc_G100
0006fd dfee      	RCALL _ks0108_rddata_G100
0006fe c0c4      	RJMP _0x2100008
                 ; .FEND
                 _glcd_init:
                 ; .FSTART _glcd_init
0006ff 93ba      	ST   -Y,R27
000700 93aa      	ST   -Y,R26
000701 931a      	ST   -Y,R17
000702 9a88      	SBI  0x11,0
000703 9a89      	SBI  0x11,1
000704 9a8a      	SBI  0x11,2
000705 9a8b      	SBI  0x11,3
000706 9a93      	SBI  0x12,3
000707 9a8c      	SBI  0x11,4
000708 9a8d      	SBI  0x11,5
000709 df7a      	RCALL _ks0108_disable_G100
00070a 9893      	CBI  0x12,3
00070b e6a4      	LDI  R26,LOW(100)
00070c e0b0      	LDI  R27,0
00070d 940e 1071 	CALL _delay_ms
00070f 9a93      	SBI  0x12,3
000710 e010      	LDI  R17,LOW(0)
                 _0x200000C:
000711 3012      	CPI  R17,2
000712 f440      	BRSH _0x200000E
000713 931a      	ST   -Y,R17
000714 e3af      	LDI  R26,LOW(63)
000715 df91      	RCALL _ks0108_wrcmd_G100
000716 931a      	ST   -Y,R17
000717 9513      	INC  R17
000718 eca0      	LDI  R26,LOW(192)
000719 df8d      	RCALL _ks0108_wrcmd_G100
00071a cff6      	RJMP _0x200000C
                 _0x200000E:
00071b e0e1      	LDI  R30,LOW(1)
00071c 93e0 0160 	STS  _glcd_state,R30
00071e e0e0      	LDI  R30,LOW(0)
                +
00071f 93e0 0161+STS _glcd_state + ( 1 ) , R30
                 	__PUTB1MN _glcd_state,1
000721 81e9      	LDD  R30,Y+1
000722 81fa      	LDD  R31,Y+1+1
000723 9730      	SBIW R30,0
000724 f0a9      	BREQ _0x200000F
000725 81a9      	LDD  R26,Y+1
000726 81ba      	LDD  R27,Y+1+1
000727 940e 1294 	CALL __GETW1P
                +
000729 93e0 0164+STS _glcd_state + ( 4 ) , R30
00072b 93f0 0165+STS _glcd_state + ( 4 ) + 1 , R31
                 	__PUTW1MN _glcd_state,4
00072d 9612      	ADIW R26,2
00072e 940e 1294 	CALL __GETW1P
                +
000730 93e0 0179+STS _glcd_state + ( 25 ) , R30
000732 93f0 017a+STS _glcd_state + ( 25 ) + 1 , R31
                 	__PUTW1MN _glcd_state,25
000734 81a9      	LDD  R26,Y+1
000735 81ba      	LDD  R27,Y+1+1
000736 9614      	ADIW R26,4
000737 940e 1294 	CALL __GETW1P
000739 c00a      	RJMP _0x20000AC
                 _0x200000F:
00073a e0e0      	LDI  R30,LOW(0)
00073b e0f0      	LDI  R31,HIGH(0)
                +
00073c 93e0 0164+STS _glcd_state + ( 4 ) , R30
00073e 93f0 0165+STS _glcd_state + ( 4 ) + 1 , R31
                 	__PUTW1MN _glcd_state,4
                +
000740 93e0 0179+STS _glcd_state + ( 25 ) , R30
000742 93f0 017a+STS _glcd_state + ( 25 ) + 1 , R31
                 	__PUTW1MN _glcd_state,25
                 _0x20000AC:
                +
000744 93e0 017b+STS _glcd_state + ( 27 ) , R30
000746 93f0 017c+STS _glcd_state + ( 27 ) + 1 , R31
                 	__PUTW1MN _glcd_state,27
000748 e0e1      	LDI  R30,LOW(1)
                +
000749 93e0 0166+STS _glcd_state + ( 6 ) , R30
                 	__PUTB1MN _glcd_state,6
                +
00074b 93e0 0167+STS _glcd_state + ( 7 ) , R30
                 	__PUTB1MN _glcd_state,7
00074d 940e 0f0c 	CALL SUBOPT_0x7
00074f e0e1      	LDI  R30,LOW(1)
                +
000750 93e0 0170+STS _glcd_state + ( 16 ) , R30
                 	__PUTB1MN _glcd_state,16
                +
000752 e7e1     +LDI R30 , LOW ( _glcd_state + ( 17 ) )
000753 e0f1     +LDI R31 , HIGH ( _glcd_state + ( 17 ) )
                 	__POINTW1MN _glcd_state,17
000754 93fa      	ST   -Y,R31
000755 93ea      	ST   -Y,R30
000756 efef      	LDI  R30,LOW(255)
000757 93ea      	ST   -Y,R30
000758 e0a8      	LDI  R26,LOW(8)
000759 e0b0      	LDI  R27,0
00075a 940e 0e56 	CALL _memset
00075c d004      	RCALL _glcd_clear
00075d e0e1      	LDI  R30,LOW(1)
00075e 8118      	LDD  R17,Y+0
00075f 9623      	ADIW R28,3
000760 9508      	RET
                 ; .FEND
                 _glcd_clear:
                 ; .FSTART _glcd_clear
000761 940e 12eb 	CALL __SAVELOCR4
000763 e000      	LDI  R16,0
000764 e030      	LDI  R19,0
                +
000765 91e0 0161+LDS R30 , _glcd_state + ( 1 )
                 	__GETB1MN _glcd_state,1
000767 30e0      	CPI  R30,0
000768 f009      	BREQ _0x2000015
000769 ef0f      	LDI  R16,LOW(255)
                 _0x2000015:
                 _0x2000016:
00076a 3038      	CPI  R19,8
00076b f478      	BRSH _0x2000018
00076c e0e0      	LDI  R30,LOW(0)
00076d 93ea      	ST   -Y,R30
00076e 2fa3      	MOV  R26,R19
00076f 5f3f      	SUBI R19,-1
000770 df4e      	RCALL _ks0108_gotoxp_G100
000771 e010      	LDI  R17,LOW(0)
                 _0x2000019:
000772 2fa1      	MOV  R26,R17
000773 5f1f      	SUBI R17,-1
000774 38a0      	CPI  R26,LOW(0x80)
000775 f420      	BRSH _0x200001B
000776 2fa0      	MOV  R26,R16
000777 940e 0f7d 	CALL SUBOPT_0x13
000779 cff8      	RJMP _0x2000019
                 _0x200001B:
00077a cfef      	RJMP _0x2000016
                 _0x2000018:
00077b e0e0      	LDI  R30,LOW(0)
00077c 93ea      	ST   -Y,R30
00077d e0a0      	LDI  R26,LOW(0)
00077e df40      	RCALL _ks0108_gotoxp_G100
00077f e0e0      	LDI  R30,LOW(0)
000780 93ea      	ST   -Y,R30
000781 e0a0      	LDI  R26,LOW(0)
000782 d306      	RCALL _glcd_moveto
000783 940e 12f2 	CALL __LOADLOCR4
000785 9624      	ADIW R28,4
000786 9508      	RET
                 ; .FEND
                 _glcd_putpixel:
                 ; .FSTART _glcd_putpixel
000787 93aa      	ST   -Y,R26
000788 931a      	ST   -Y,R17
000789 930a      	ST   -Y,R16
00078a 81ac      	LDD  R26,Y+4
00078b 38a0      	CPI  R26,LOW(0x80)
00078c f418      	BRSH _0x200001D
00078d 81ab      	LDD  R26,Y+3
00078e 34a0      	CPI  R26,LOW(0x40)
00078f f008      	BRLO _0x200001C
                 _0x200001D:
000790 c016      	RJMP _0x2100009
                 _0x200001C:
000791 81ec      	LDD  R30,Y+4
000792 93ea      	ST   -Y,R30
000793 81ac      	LDD  R26,Y+4
000794 df60      	RCALL _ks0108_rdbyte_G100
000795 2f1e      	MOV  R17,R30
000796 df16      	RCALL _ks0108_setloc_G100
000797 81eb      	LDD  R30,Y+3
000798 70e7      	ANDI R30,LOW(0x7)
000799 e0a1      	LDI  R26,LOW(1)
00079a 940e 1230 	CALL __LSLB12
00079c 2f0e      	MOV  R16,R30
00079d 81ea      	LDD  R30,Y+2
00079e 30e0      	CPI  R30,0
00079f f011      	BREQ _0x200001F
0007a0 2b10      	OR   R17,R16
0007a1 c003      	RJMP _0x2000020
                 _0x200001F:
0007a2 2fe0      	MOV  R30,R16
0007a3 95e0      	COM  R30
0007a4 231e      	AND  R17,R30
                 _0x2000020:
0007a5 2fa1      	MOV  R26,R17
0007a6 df3c      	RCALL _ks0108_wrdata_G100
                 _0x2100009:
0007a7 8119      	LDD  R17,Y+1
0007a8 8108      	LDD  R16,Y+0
0007a9 9625      	ADIW R28,5
0007aa 9508      	RET
                 ; .FEND
                 _glcd_getpixel:
                 ; .FSTART _glcd_getpixel
0007ab 93aa      	ST   -Y,R26
0007ac 81a9      	LDD  R26,Y+1
0007ad 38a0      	CPI  R26,LOW(0x80)
0007ae f418      	BRSH _0x2000022
0007af 81a8      	LD   R26,Y
0007b0 34a0      	CPI  R26,LOW(0x40)
0007b1 f010      	BRLO _0x2000021
                 _0x2000022:
0007b2 e0e0      	LDI  R30,LOW(0)
0007b3 c00f      	RJMP _0x2100008
                 _0x2000021:
0007b4 81e9      	LDD  R30,Y+1
0007b5 93ea      	ST   -Y,R30
0007b6 81a9      	LDD  R26,Y+1
0007b7 df3d      	RCALL _ks0108_rdbyte_G100
0007b8 2e1e      	MOV  R1,R30
0007b9 81e8      	LD   R30,Y
0007ba 70e7      	ANDI R30,LOW(0x7)
0007bb e0a1      	LDI  R26,LOW(1)
0007bc 940e 1230 	CALL __LSLB12
0007be 21e1      	AND  R30,R1
0007bf f011      	BREQ _0x2000024
0007c0 e0e1      	LDI  R30,LOW(1)
0007c1 c001      	RJMP _0x2000025
                 _0x2000024:
0007c2 e0e0      	LDI  R30,LOW(0)
                 _0x2000025:
                 _0x2100008:
0007c3 9622      	ADIW R28,2
0007c4 9508      	RET
                 ; .FEND
                 _ks0108_wrmasked_G100:
                 ; .FSTART _ks0108_wrmasked_G100
0007c5 93aa      	ST   -Y,R26
0007c6 931a      	ST   -Y,R17
0007c7 81ed      	LDD  R30,Y+5
0007c8 93ea      	ST   -Y,R30
0007c9 81ad      	LDD  R26,Y+5
0007ca df2a      	RCALL _ks0108_rdbyte_G100
0007cb 2f1e      	MOV  R17,R30
0007cc dee0      	RCALL _ks0108_setloc_G100
0007cd 81e9      	LDD  R30,Y+1
0007ce 30e7      	CPI  R30,LOW(0x7)
0007cf f011      	BREQ _0x200002B
0007d0 30e8      	CPI  R30,LOW(0x8)
0007d1 f439      	BRNE _0x200002C
                 _0x200002B:
0007d2 81eb      	LDD  R30,Y+3
0007d3 93ea      	ST   -Y,R30
0007d4 81aa      	LDD  R26,Y+2
0007d5 940e 0e71 	CALL _glcd_mappixcolor1bit
0007d7 83eb      	STD  Y+3,R30
0007d8 c008      	RJMP _0x200002D
                 _0x200002C:
0007d9 30e3      	CPI  R30,LOW(0x3)
0007da f421      	BRNE _0x200002F
0007db 81eb      	LDD  R30,Y+3
0007dc 95e0      	COM  R30
0007dd 83eb      	STD  Y+3,R30
0007de c002      	RJMP _0x2000030
                 _0x200002F:
0007df 30e0      	CPI  R30,0
0007e0 f421      	BRNE _0x2000031
                 _0x2000030:
                 _0x200002D:
0007e1 81ea      	LDD  R30,Y+2
0007e2 95e0      	COM  R30
0007e3 231e      	AND  R17,R30
0007e4 c002      	RJMP _0x2000032
                 _0x2000031:
0007e5 30e2      	CPI  R30,LOW(0x2)
0007e6 f429      	BRNE _0x2000033
                 _0x2000032:
0007e7 81ea      	LDD  R30,Y+2
0007e8 81ab      	LDD  R26,Y+3
0007e9 23ea      	AND  R30,R26
0007ea 2b1e      	OR   R17,R30
0007eb c00e      	RJMP _0x2000029
                 _0x2000033:
0007ec 30e1      	CPI  R30,LOW(0x1)
0007ed f429      	BRNE _0x2000034
0007ee 81ea      	LDD  R30,Y+2
0007ef 81ab      	LDD  R26,Y+3
0007f0 23ea      	AND  R30,R26
0007f1 271e      	EOR  R17,R30
0007f2 c007      	RJMP _0x2000029
                 _0x2000034:
0007f3 30e4      	CPI  R30,LOW(0x4)
0007f4 f429      	BRNE _0x2000029
0007f5 81ea      	LDD  R30,Y+2
0007f6 95e0      	COM  R30
0007f7 81ab      	LDD  R26,Y+3
0007f8 2bea      	OR   R30,R26
0007f9 231e      	AND  R17,R30
                 _0x2000029:
0007fa 2fa1      	MOV  R26,R17
0007fb 940e 0f7d 	CALL SUBOPT_0x13
0007fd 8118      	LDD  R17,Y+0
0007fe 9626      	ADIW R28,6
0007ff 9508      	RET
                 ; .FEND
                 _glcd_block:
                 ; .FSTART _glcd_block
000800 93aa      	ST   -Y,R26
000801 9723      	SBIW R28,3
000802 940e 12e9 	CALL __SAVELOCR6
000804 89a8      	LDD  R26,Y+16
000805 38a0      	CPI  R26,LOW(0x80)
000806 f448      	BRSH _0x2000037
000807 85af      	LDD  R26,Y+15
000808 34a0      	CPI  R26,LOW(0x40)
000809 f430      	BRSH _0x2000037
00080a 85ae      	LDD  R26,Y+14
00080b 30a0      	CPI  R26,LOW(0x0)
00080c f019      	BREQ _0x2000037
00080d 85ad      	LDD  R26,Y+13
00080e 30a0      	CPI  R26,LOW(0x0)
00080f f409      	BRNE _0x2000036
                 _0x2000037:
000810 c1c8      	RJMP _0x2100007
                 _0x2000036:
000811 85ee      	LDD  R30,Y+14
000812 87e8      	STD  Y+8,R30
000813 89a8      	LDD  R26,Y+16
000814 27bb      	CLR  R27
000815 85ee      	LDD  R30,Y+14
000816 e0f0      	LDI  R31,0
000817 0fae      	ADD  R26,R30
000818 1fbf      	ADC  R27,R31
000819 38a1      	CPI  R26,LOW(0x81)
00081a e0e0      	LDI  R30,HIGH(0x81)
00081b 07be      	CPC  R27,R30
00081c f020      	BRLO _0x2000039
00081d 89a8      	LDD  R26,Y+16
00081e e8e0      	LDI  R30,LOW(128)
00081f 1bea      	SUB  R30,R26
000820 87ee      	STD  Y+14,R30
                 _0x2000039:
000821 852d      	LDD  R18,Y+13
000822 85af      	LDD  R26,Y+15
000823 27bb      	CLR  R27
000824 85ed      	LDD  R30,Y+13
000825 e0f0      	LDI  R31,0
000826 0fae      	ADD  R26,R30
000827 1fbf      	ADC  R27,R31
000828 34a1      	CPI  R26,LOW(0x41)
000829 e0e0      	LDI  R30,HIGH(0x41)
00082a 07be      	CPC  R27,R30
00082b f020      	BRLO _0x200003A
00082c 85af      	LDD  R26,Y+15
00082d e4e0      	LDI  R30,LOW(64)
00082e 1bea      	SUB  R30,R26
00082f 87ed      	STD  Y+13,R30
                 _0x200003A:
000830 85a9      	LDD  R26,Y+9
000831 30a6      	CPI  R26,LOW(0x6)
000832 f009      	BREQ PC+2
000833 c05b      	RJMP _0x200003B
000834 85ec      	LDD  R30,Y+12
000835 30e1      	CPI  R30,LOW(0x1)
000836 f409      	BRNE _0x200003F
000837 c1a1      	RJMP _0x2100007
                 _0x200003F:
000838 30e3      	CPI  R30,LOW(0x3)
000839 f439      	BRNE _0x2000042
                +
00083a 91e0 017b+LDS R30 , _glcd_state + ( 27 )
00083c 91f0 017c+LDS R31 , _glcd_state + ( 27 ) + 1
                 	__GETW1MN _glcd_state,27
00083e 9730      	SBIW R30,0
00083f f409      	BRNE _0x2000041
000840 c198      	RJMP _0x2100007
                 _0x2000041:
                 _0x2000042:
000841 8508      	LDD  R16,Y+8
000842 85ed      	LDD  R30,Y+13
000843 95e6      	LSR  R30
000844 95e6      	LSR  R30
000845 95e6      	LSR  R30
000846 2f3e      	MOV  R19,R30
000847 2fe2      	MOV  R30,R18
000848 70e7      	ANDI R30,LOW(0x7)
000849 f419      	BRNE _0x2000044
00084a 85ad      	LDD  R26,Y+13
00084b 172a      	CP   R18,R26
00084c f0e9      	BREQ _0x2000043
                 _0x2000044:
00084d 2fa0      	MOV  R26,R16
00084e 27bb      	CLR  R27
00084f 2fe3      	MOV  R30,R19
000850 e0f0      	LDI  R31,0
000851 940e 124f 	CALL __MULW12U
000853 85aa      	LDD  R26,Y+10
000854 85bb      	LDD  R27,Y+10+1
000855 940e 0f81 	CALL SUBOPT_0x14
000857 9526      	LSR  R18
000858 9526      	LSR  R18
000859 9526      	LSR  R18
00085a 2f53      	MOV  R21,R19
                 _0x2000046:
00085b 935f      	PUSH R21
00085c 5f5f      	SUBI R21,-1
00085d 2fe2      	MOV  R30,R18
00085e 91af      	POP  R26
00085f 17ea      	CP   R30,R26
000860 f048      	BRLO _0x2000048
000861 2f10      	MOV  R17,R16
                 _0x2000049:
000862 2fe1      	MOV  R30,R17
000863 5011      	SUBI R17,1
000864 30e0      	CPI  R30,0
000865 f019      	BREQ _0x200004B
000866 940e 0f86 	CALL SUBOPT_0x15
000868 cff9      	RJMP _0x2000049
                 _0x200004B:
000869 cff1      	RJMP _0x2000046
                 _0x2000048:
                 _0x2000043:
00086a 85ae      	LDD  R26,Y+14
00086b 170a      	CP   R16,R26
00086c f111      	BREQ _0x200004C
00086d 85ee      	LDD  R30,Y+14
00086e 85aa      	LDD  R26,Y+10
00086f 85bb      	LDD  R27,Y+10+1
000870 e0f0      	LDI  R31,0
000871 940e 0f81 	CALL SUBOPT_0x14
000873 85ed      	LDD  R30,Y+13
000874 70e7      	ANDI R30,LOW(0x7)
000875 f009      	BREQ _0x200004D
000876 5f3f      	SUBI R19,-LOW(1)
                 _0x200004D:
000877 e020      	LDI  R18,LOW(0)
                 _0x200004E:
000878 932f      	PUSH R18
000879 5f2f      	SUBI R18,-1
00087a 2fe3      	MOV  R30,R19
00087b 91af      	POP  R26
00087c 17ae      	CP   R26,R30
00087d f488      	BRSH _0x2000050
00087e 851e      	LDD  R17,Y+14
                 _0x2000051:
00087f 931f      	PUSH R17
000880 5f1f      	SUBI R17,-1
000881 2fe0      	MOV  R30,R16
000882 91af      	POP  R26
000883 17ae      	CP   R26,R30
000884 f418      	BRSH _0x2000053
000885 940e 0f86 	CALL SUBOPT_0x15
000887 cff7      	RJMP _0x2000051
                 _0x2000053:
000888 85ee      	LDD  R30,Y+14
000889 81ae      	LDD  R26,Y+6
00088a 81bf      	LDD  R27,Y+6+1
00088b e0f0      	LDI  R31,0
00088c 940e 0f81 	CALL SUBOPT_0x14
00088e cfe9      	RJMP _0x200004E
                 _0x2000050:
                 _0x200004C:
                 _0x200003B:
00088f 85ef      	LDD  R30,Y+15
000890 70e7      	ANDI R30,LOW(0x7)
000891 2f3e      	MOV  R19,R30
                 _0x2000054:
000892 85ed      	LDD  R30,Y+13
000893 30e0      	CPI  R30,0
000894 f409      	BRNE PC+2
000895 c143      	RJMP _0x2000056
000896 85ea      	LDD  R30,Y+10
000897 85fb      	LDD  R31,Y+10+1
000898 83ee      	STD  Y+6,R30
000899 83ff      	STD  Y+6+1,R31
00089a e010      	LDI  R17,LOW(0)
00089b 8908      	LDD  R16,Y+16
00089c 3030      	CPI  R19,0
00089d f009      	BREQ PC+2
00089e c065      	RJMP _0x2000057
00089f 85ad      	LDD  R26,Y+13
0008a0 30a8      	CPI  R26,LOW(0x8)
0008a1 f408      	BRSH PC+2
0008a2 c05c      	RJMP _0x2000058
0008a3 85e9      	LDD  R30,Y+9
0008a4 30e0      	CPI  R30,0
0008a5 f011      	BREQ _0x200005D
0008a6 30e3      	CPI  R30,LOW(0x3)
0008a7 f409      	BRNE _0x200005E
                 _0x200005D:
0008a8 c002      	RJMP _0x200005F
                 _0x200005E:
0008a9 30e7      	CPI  R30,LOW(0x7)
0008aa f409      	BRNE _0x2000060
                 _0x200005F:
0008ab c002      	RJMP _0x2000061
                 _0x2000060:
0008ac 30e8      	CPI  R30,LOW(0x8)
0008ad f409      	BRNE _0x2000062
                 _0x2000061:
0008ae c002      	RJMP _0x2000063
                 _0x2000062:
0008af 30e6      	CPI  R30,LOW(0x6)
0008b0 f409      	BRNE _0x2000064
                 _0x2000063:
0008b1 c002      	RJMP _0x2000065
                 _0x2000064:
0008b2 30e9      	CPI  R30,LOW(0x9)
0008b3 f409      	BRNE _0x2000066
                 _0x2000065:
0008b4 c002      	RJMP _0x2000067
                 _0x2000066:
0008b5 30ea      	CPI  R30,LOW(0xA)
0008b6 f421      	BRNE _0x200005B
                 _0x2000067:
0008b7 930a      	ST   -Y,R16
0008b8 89e8      	LDD  R30,Y+16
0008b9 940e 0f77 	CALL SUBOPT_0x12
                 _0x200005B:
                 _0x2000069:
0008bb 931f      	PUSH R17
0008bc 5f1f      	SUBI R17,-1
0008bd 85ee      	LDD  R30,Y+14
0008be 91af      	POP  R26
0008bf 17ae      	CP   R26,R30
0008c0 f5b8      	BRSH _0x200006B
0008c1 85a9      	LDD  R26,Y+9
0008c2 30a6      	CPI  R26,LOW(0x6)
0008c3 f461      	BRNE _0x200006C
0008c4 de27      	RCALL _ks0108_rddata_G100
0008c5 dde7      	RCALL _ks0108_setloc_G100
0008c6 940e 0f93 	CALL SUBOPT_0x16
0008c8 93fa      	ST   -Y,R31
0008c9 93ea      	ST   -Y,R30
0008ca de21      	RCALL _ks0108_rddata_G100
0008cb 2fae      	MOV  R26,R30
0008cc 940e 0eb8 	CALL _glcd_writemem
0008ce ddff      	RCALL _ks0108_nextx_G100
0008cf c027      	RJMP _0x200006D
                 _0x200006C:
0008d0 85e9      	LDD  R30,Y+9
0008d1 30e9      	CPI  R30,LOW(0x9)
0008d2 f411      	BRNE _0x2000071
0008d3 e050      	LDI  R21,LOW(0)
0008d4 c00e      	RJMP _0x2000072
                 _0x2000071:
0008d5 30ea      	CPI  R30,LOW(0xA)
0008d6 f411      	BRNE _0x2000070
0008d7 ef5f      	LDI  R21,LOW(255)
0008d8 c00a      	RJMP _0x2000072
                 _0x2000070:
0008d9 940e 0f93 	CALL SUBOPT_0x16
0008db 940e 0f9c 	CALL SUBOPT_0x17
0008dd 2f5e      	MOV  R21,R30
0008de 85e9      	LDD  R30,Y+9
0008df 30e7      	CPI  R30,LOW(0x7)
0008e0 f011      	BREQ _0x2000079
0008e1 30e8      	CPI  R30,LOW(0x8)
0008e2 f421      	BRNE _0x200007A
                 _0x2000079:
                 _0x2000072:
0008e3 940e 0fa2 	CALL SUBOPT_0x18
0008e5 2f5e      	MOV  R21,R30
0008e6 c006      	RJMP _0x200007B
                 _0x200007A:
0008e7 30e3      	CPI  R30,LOW(0x3)
0008e8 f411      	BRNE _0x200007D
0008e9 9550      	COM  R21
0008ea c002      	RJMP _0x200007E
                 _0x200007D:
0008eb 30e0      	CPI  R30,0
0008ec f421      	BRNE _0x2000080
                 _0x200007E:
                 _0x200007B:
0008ed 2fa5      	MOV  R26,R21
0008ee 940e 0f7d 	CALL SUBOPT_0x13
0008f0 c006      	RJMP _0x2000077
                 _0x2000080:
0008f1 940e 0fa6 	CALL SUBOPT_0x19
0008f3 efef      	LDI  R30,LOW(255)
0008f4 93ea      	ST   -Y,R30
0008f5 85ad      	LDD  R26,Y+13
0008f6 dece      	RCALL _ks0108_wrmasked_G100
                 _0x2000077:
                 _0x200006D:
0008f7 cfc3      	RJMP _0x2000069
                 _0x200006B:
0008f8 85ef      	LDD  R30,Y+15
0008f9 5fe8      	SUBI R30,-LOW(8)
0008fa 87ef      	STD  Y+15,R30
0008fb 85ed      	LDD  R30,Y+13
0008fc 50e8      	SUBI R30,LOW(8)
0008fd 87ed      	STD  Y+13,R30
0008fe c0d1      	RJMP _0x2000081
                 _0x2000058:
0008ff 855d      	LDD  R21,Y+13
000900 e020      	LDI  R18,LOW(0)
000901 e0e0      	LDI  R30,LOW(0)
000902 87ed      	STD  Y+13,R30
000903 c07a      	RJMP _0x2000082
                 _0x2000057:
000904 2fe3      	MOV  R30,R19
000905 85ad      	LDD  R26,Y+13
000906 0fae      	ADD  R26,R30
000907 30a9      	CPI  R26,LOW(0x9)
000908 f420      	BRSH _0x2000083
000909 852d      	LDD  R18,Y+13
00090a e0e0      	LDI  R30,LOW(0)
00090b 87ed      	STD  Y+13,R30
00090c c003      	RJMP _0x2000084
                 _0x2000083:
00090d e0e8      	LDI  R30,LOW(8)
00090e 1be3      	SUB  R30,R19
00090f 2f2e      	MOV  R18,R30
                 _0x2000084:
000910 933a      	ST   -Y,R19
000911 2fa2      	MOV  R26,R18
000912 940e 0e66 	CALL _glcd_getmask
000914 2f4e      	MOV  R20,R30
000915 85e9      	LDD  R30,Y+9
000916 30e6      	CPI  R30,LOW(0x6)
000917 f4f1      	BRNE _0x2000088
                 _0x2000089:
000918 931f      	PUSH R17
000919 5f1f      	SUBI R17,-1
00091a 85ee      	LDD  R30,Y+14
00091b 91af      	POP  R26
00091c 17ae      	CP   R26,R30
00091d f4b8      	BRSH _0x200008B
00091e 940e 0fac 	CALL SUBOPT_0x1A
000920 2fae      	MOV  R26,R30
000921 2fe3      	MOV  R30,R19
000922 940e 1238 	CALL __LSRB12
000924 940e 0fb3 	CALL SUBOPT_0x1B
000926 2fe3      	MOV  R30,R19
000927 2fa4      	MOV  R26,R20
000928 940e 1238 	CALL __LSRB12
00092a 95e0      	COM  R30
00092b 21e1      	AND  R30,R1
00092c 2b5e      	OR   R21,R30
00092d 940e 0f93 	CALL SUBOPT_0x16
00092f 93fa      	ST   -Y,R31
000930 93ea      	ST   -Y,R30
000931 2fa5      	MOV  R26,R21
000932 940e 0eb8 	CALL _glcd_writemem
000934 cfe3      	RJMP _0x2000089
                 _0x200008B:
000935 c02c      	RJMP _0x2000087
                 _0x2000088:
000936 30e9      	CPI  R30,LOW(0x9)
000937 f411      	BRNE _0x200008C
000938 e050      	LDI  R21,LOW(0)
000939 c003      	RJMP _0x200008D
                 _0x200008C:
00093a 30ea      	CPI  R30,LOW(0xA)
00093b f4a9      	BRNE _0x2000093
00093c ef5f      	LDI  R21,LOW(255)
                 _0x200008D:
00093d 940e 0fa2 	CALL SUBOPT_0x18
00093f 2fae      	MOV  R26,R30
000940 2fe3      	MOV  R30,R19
000941 940e 1230 	CALL __LSLB12
000943 2f5e      	MOV  R21,R30
                 _0x2000090:
000944 931f      	PUSH R17
000945 5f1f      	SUBI R17,-1
000946 85ee      	LDD  R30,Y+14
000947 91af      	POP  R26
000948 17ae      	CP   R26,R30
000949 f430      	BRSH _0x2000092
00094a 940e 0fa6 	CALL SUBOPT_0x19
00094c 934a      	ST   -Y,R20
00094d e0a0      	LDI  R26,LOW(0)
00094e de76      	RCALL _ks0108_wrmasked_G100
00094f cff4      	RJMP _0x2000090
                 _0x2000092:
000950 c011      	RJMP _0x2000087
                 _0x2000093:
                 _0x2000094:
000951 931f      	PUSH R17
000952 5f1f      	SUBI R17,-1
000953 85ee      	LDD  R30,Y+14
000954 91af      	POP  R26
000955 17ae      	CP   R26,R30
000956 f458      	BRSH _0x2000096
000957 940e 0fbe 	CALL SUBOPT_0x1C
000959 2fae      	MOV  R26,R30
00095a 2fe3      	MOV  R30,R19
00095b 940e 1230 	CALL __LSLB12
00095d 93ea      	ST   -Y,R30
00095e 934a      	ST   -Y,R20
00095f 85ad      	LDD  R26,Y+13
000960 de64      	RCALL _ks0108_wrmasked_G100
000961 cfef      	RJMP _0x2000094
                 _0x2000096:
                 _0x2000087:
000962 85ed      	LDD  R30,Y+13
000963 30e0      	CPI  R30,0
000964 f409      	BRNE _0x2000097
000965 c073      	RJMP _0x2000056
                 _0x2000097:
000966 85ad      	LDD  R26,Y+13
000967 30a8      	CPI  R26,LOW(0x8)
000968 f428      	BRSH _0x2000098
000969 85ed      	LDD  R30,Y+13
00096a 1be2      	SUB  R30,R18
00096b 2f5e      	MOV  R21,R30
00096c e0e0      	LDI  R30,LOW(0)
00096d c003      	RJMP _0x20000AD
                 _0x2000098:
00096e 2f53      	MOV  R21,R19
00096f 85ed      	LDD  R30,Y+13
000970 50e8      	SUBI R30,LOW(8)
                 _0x20000AD:
000971 87ed      	STD  Y+13,R30
000972 e010      	LDI  R17,LOW(0)
000973 85ef      	LDD  R30,Y+15
000974 5fe8      	SUBI R30,-LOW(8)
000975 87ef      	STD  Y+15,R30
000976 e0e8      	LDI  R30,LOW(8)
000977 1be3      	SUB  R30,R19
000978 2f2e      	MOV  R18,R30
000979 8908      	LDD  R16,Y+16
00097a 85ea      	LDD  R30,Y+10
00097b 85fb      	LDD  R31,Y+10+1
00097c 83ee      	STD  Y+6,R30
00097d 83ff      	STD  Y+6+1,R31
                 _0x2000082:
00097e 2fe5      	MOV  R30,R21
00097f e0f0      	LDI  R31,0
000980 5ce4      	SUBI R30,LOW(-__glcd_mask*2)
000981 4ff7      	SBCI R31,HIGH(-__glcd_mask*2)
000982 9144      	LPM  R20,Z
000983 85e9      	LDD  R30,Y+9
000984 30e6      	CPI  R30,LOW(0x6)
000985 f4f1      	BRNE _0x200009D
                 _0x200009E:
000986 931f      	PUSH R17
000987 5f1f      	SUBI R17,-1
000988 85ee      	LDD  R30,Y+14
000989 91af      	POP  R26
00098a 17ae      	CP   R26,R30
00098b f4b8      	BRSH _0x20000A0
00098c 940e 0fac 	CALL SUBOPT_0x1A
00098e 2fae      	MOV  R26,R30
00098f 2fe2      	MOV  R30,R18
000990 940e 1230 	CALL __LSLB12
000992 940e 0fb3 	CALL SUBOPT_0x1B
000994 2fe2      	MOV  R30,R18
000995 2fa4      	MOV  R26,R20
000996 940e 1230 	CALL __LSLB12
000998 95e0      	COM  R30
000999 21e1      	AND  R30,R1
00099a 2b5e      	OR   R21,R30
00099b 940e 0f93 	CALL SUBOPT_0x16
00099d 93fa      	ST   -Y,R31
00099e 93ea      	ST   -Y,R30
00099f 2fa5      	MOV  R26,R21
0009a0 940e 0eb8 	CALL _glcd_writemem
0009a2 cfe3      	RJMP _0x200009E
                 _0x20000A0:
0009a3 c02c      	RJMP _0x200009C
                 _0x200009D:
0009a4 30e9      	CPI  R30,LOW(0x9)
0009a5 f411      	BRNE _0x20000A1
0009a6 e050      	LDI  R21,LOW(0)
0009a7 c003      	RJMP _0x20000A2
                 _0x20000A1:
0009a8 30ea      	CPI  R30,LOW(0xA)
0009a9 f4a9      	BRNE _0x20000A8
0009aa ef5f      	LDI  R21,LOW(255)
                 _0x20000A2:
0009ab 940e 0fa2 	CALL SUBOPT_0x18
0009ad 2fae      	MOV  R26,R30
0009ae 2fe2      	MOV  R30,R18
0009af 940e 1238 	CALL __LSRB12
0009b1 2f5e      	MOV  R21,R30
                 _0x20000A5:
0009b2 931f      	PUSH R17
0009b3 5f1f      	SUBI R17,-1
0009b4 85ee      	LDD  R30,Y+14
0009b5 91af      	POP  R26
0009b6 17ae      	CP   R26,R30
0009b7 f430      	BRSH _0x20000A7
0009b8 940e 0fa6 	CALL SUBOPT_0x19
0009ba 934a      	ST   -Y,R20
0009bb e0a0      	LDI  R26,LOW(0)
0009bc de08      	RCALL _ks0108_wrmasked_G100
0009bd cff4      	RJMP _0x20000A5
                 _0x20000A7:
0009be c011      	RJMP _0x200009C
                 _0x20000A8:
                 _0x20000A9:
0009bf 931f      	PUSH R17
0009c0 5f1f      	SUBI R17,-1
0009c1 85ee      	LDD  R30,Y+14
0009c2 91af      	POP  R26
0009c3 17ae      	CP   R26,R30
0009c4 f458      	BRSH _0x20000AB
0009c5 940e 0fbe 	CALL SUBOPT_0x1C
0009c7 2fae      	MOV  R26,R30
0009c8 2fe2      	MOV  R30,R18
0009c9 940e 1238 	CALL __LSRB12
0009cb 93ea      	ST   -Y,R30
0009cc 934a      	ST   -Y,R20
0009cd 85ad      	LDD  R26,Y+13
0009ce ddf6      	RCALL _ks0108_wrmasked_G100
0009cf cfef      	RJMP _0x20000A9
                 _0x20000AB:
                 _0x200009C:
                 _0x2000081:
0009d0 85e8      	LDD  R30,Y+8
0009d1 85aa      	LDD  R26,Y+10
0009d2 85bb      	LDD  R27,Y+10+1
0009d3 e0f0      	LDI  R31,0
0009d4 0fea      	ADD  R30,R26
0009d5 1ffb      	ADC  R31,R27
0009d6 87ea      	STD  Y+10,R30
0009d7 87fb      	STD  Y+10+1,R31
0009d8 ceb9      	RJMP _0x2000054
                 _0x2000056:
                 _0x2100007:
0009d9 940e 12f0 	CALL __LOADLOCR6
0009db 9661      	ADIW R28,17
0009dc 9508      	RET
                 ; .FEND
                 
                 	.CSEG
                 _glcd_clipx:
                 ; .FSTART _glcd_clipx
0009dd 940e 0fcb 	CALL SUBOPT_0x1D
0009df f024      	BRLT _0x2020003
0009e0 e0e0      	LDI  R30,LOW(0)
0009e1 e0f0      	LDI  R31,HIGH(0)
0009e2 940c 0e6f 	JMP  _0x2100003
                 _0x2020003:
0009e4 81a8      	LD   R26,Y
0009e5 81b9      	LDD  R27,Y+1
0009e6 38a0      	CPI  R26,LOW(0x80)
0009e7 e0e0      	LDI  R30,HIGH(0x80)
0009e8 07be      	CPC  R27,R30
0009e9 f024      	BRLT _0x2020004
0009ea e7ef      	LDI  R30,LOW(127)
0009eb e0f0      	LDI  R31,HIGH(127)
0009ec 940c 0e6f 	JMP  _0x2100003
                 _0x2020004:
0009ee 81e8      	LD   R30,Y
0009ef 81f9      	LDD  R31,Y+1
0009f0 940c 0e6f 	JMP  _0x2100003
                 ; .FEND
                 _glcd_clipy:
                 ; .FSTART _glcd_clipy
0009f2 940e 0fcb 	CALL SUBOPT_0x1D
0009f4 f024      	BRLT _0x2020005
0009f5 e0e0      	LDI  R30,LOW(0)
0009f6 e0f0      	LDI  R31,HIGH(0)
0009f7 940c 0e6f 	JMP  _0x2100003
                 _0x2020005:
0009f9 81a8      	LD   R26,Y
0009fa 81b9      	LDD  R27,Y+1
0009fb 34a0      	CPI  R26,LOW(0x40)
0009fc e0e0      	LDI  R30,HIGH(0x40)
0009fd 07be      	CPC  R27,R30
0009fe f024      	BRLT _0x2020006
0009ff e3ef      	LDI  R30,LOW(63)
000a00 e0f0      	LDI  R31,HIGH(63)
000a01 940c 0e6f 	JMP  _0x2100003
                 _0x2020006:
000a03 81e8      	LD   R30,Y
000a04 81f9      	LDD  R31,Y+1
000a05 940c 0e6f 	JMP  _0x2100003
                 ; .FEND
                 _glcd_setpixel:
                 ; .FSTART _glcd_setpixel
000a07 93aa      	ST   -Y,R26
000a08 81e9      	LDD  R30,Y+1
000a09 93ea      	ST   -Y,R30
000a0a 81e9      	LDD  R30,Y+1
000a0b 93ea      	ST   -Y,R30
000a0c 91a0 0160 	LDS  R26,_glcd_state
000a0e dd78      	RCALL _glcd_putpixel
000a0f 940c 0e6f 	JMP  _0x2100003
                 ; .FEND
                 _glcd_imagesize:
                 ; .FSTART _glcd_imagesize
000a11 93aa      	ST   -Y,R26
000a12 931a      	ST   -Y,R17
000a13 81aa      	LDD  R26,Y+2
000a14 38a0      	CPI  R26,LOW(0x80)
000a15 f418      	BRSH _0x2020008
000a16 81a9      	LDD  R26,Y+1
000a17 34a0      	CPI  R26,LOW(0x40)
000a18 f038      	BRLO _0x2020007
                 _0x2020008:
                +
000a19 e0e0     +LDI R30 , LOW ( 0x0 )
000a1a e0f0     +LDI R31 , HIGH ( 0x0 )
000a1b e060     +LDI R22 , BYTE3 ( 0x0 )
000a1c e070     +LDI R23 , BYTE4 ( 0x0 )
                 	__GETD1N 0x0
000a1d 8118      	LDD  R17,Y+0
000a1e 940c 0eb6 	JMP  _0x2100002
                 _0x2020007:
000a20 81e9      	LDD  R30,Y+1
000a21 70e7      	ANDI R30,LOW(0x7)
000a22 2f1e      	MOV  R17,R30
000a23 81e9      	LDD  R30,Y+1
000a24 95e6      	LSR  R30
000a25 95e6      	LSR  R30
000a26 95e6      	LSR  R30
000a27 83e9      	STD  Y+1,R30
000a28 3010      	CPI  R17,0
000a29 f011      	BREQ _0x202000A
000a2a 5fef      	SUBI R30,-LOW(1)
000a2b 83e9      	STD  Y+1,R30
                 _0x202000A:
000a2c 81aa      	LDD  R26,Y+2
000a2d 27bb      	CLR  R27
000a2e 2788      	CLR  R24
000a2f 2799      	CLR  R25
000a30 81e9      	LDD  R30,Y+1
000a31 27ff      	CLR  R31
000a32 2766      	CLR  R22
000a33 2777      	CLR  R23
000a34 940e 1257 	CALL __MULD12U
                +
000a36 5fec     +SUBI R30 , LOW ( - 4 )
000a37 4fff     +SBCI R31 , HIGH ( - 4 )
000a38 4f6f     +SBCI R22 , BYTE3 ( - 4 )
000a39 4f7f     +SBCI R23 , BYTE4 ( - 4 )
                 	__ADDD1N 4
000a3a 8118      	LDD  R17,Y+0
000a3b 940c 0eb6 	JMP  _0x2100002
                 ; .FEND
                 _glcd_putimagef:
                 ; .FSTART _glcd_putimagef
000a3d 93aa      	ST   -Y,R26
000a3e 940e 12eb 	CALL __SAVELOCR4
000a40 81ac      	LDD  R26,Y+4
000a41 30a5      	CPI  R26,LOW(0x5)
000a42 f518      	BRSH _0x2020038
000a43 81ed      	LDD  R30,Y+5
000a44 81fe      	LDD  R31,Y+5+1
000a45 9105      	LPM  R16,Z+
000a46 940e 0fd2 	CALL SUBOPT_0x1E
000a48 9115      	LPM  R17,Z+
000a49 940e 0fd2 	CALL SUBOPT_0x1E
000a4b 9125      	LPM  R18,Z+
000a4c 940e 0fd2 	CALL SUBOPT_0x1E
000a4e 9135      	LPM  R19,Z+
000a4f 83ed      	STD  Y+5,R30
000a50 83fe      	STD  Y+5+1,R31
000a51 85e8      	LDD  R30,Y+8
000a52 93ea      	ST   -Y,R30
000a53 85e8      	LDD  R30,Y+8
000a54 93ea      	ST   -Y,R30
000a55 930a      	ST   -Y,R16
000a56 932a      	ST   -Y,R18
000a57 e0e1      	LDI  R30,LOW(1)
000a58 93ea      	ST   -Y,R30
000a59 85ea      	LDD  R30,Y+10
000a5a 85fb      	LDD  R31,Y+10+1
000a5b 93fa      	ST   -Y,R31
000a5c 93ea      	ST   -Y,R30
000a5d 85ab      	LDD  R26,Y+11
000a5e dda1      	RCALL _glcd_block
000a5f 930a      	ST   -Y,R16
000a60 2fa2      	MOV  R26,R18
000a61 dfaf      	RCALL _glcd_imagesize
000a62 940e 12f2 	CALL __LOADLOCR4
000a64 940c 0e48 	JMP  _0x2100004
                 _0x2020038:
                +
000a66 e0e0     +LDI R30 , LOW ( 0x0 )
000a67 e0f0     +LDI R31 , HIGH ( 0x0 )
000a68 e060     +LDI R22 , BYTE3 ( 0x0 )
000a69 e070     +LDI R23 , BYTE4 ( 0x0 )
                 	__GETD1N 0x0
000a6a 940e 12f2 	CALL __LOADLOCR4
000a6c 940c 0e48 	JMP  _0x2100004
                 ; .FEND
                 _glcd_putpixelm_G101:
                 ; .FSTART _glcd_putpixelm_G101
000a6e 93aa      	ST   -Y,R26
000a6f 81ea      	LDD  R30,Y+2
000a70 93ea      	ST   -Y,R30
000a71 81ea      	LDD  R30,Y+2
000a72 93ea      	ST   -Y,R30
                +
000a73 91e0 0169+LDS R30 , _glcd_state + ( 9 )
                 	__GETB1MN _glcd_state,9
000a75 81aa      	LDD  R26,Y+2
000a76 23ea      	AND  R30,R26
000a77 f019      	BREQ _0x202003E
000a78 91e0 0160 	LDS  R30,_glcd_state
000a7a c002      	RJMP _0x202003F
                 _0x202003E:
                +
000a7b 91e0 0161+LDS R30 , _glcd_state + ( 1 )
                 	__GETB1MN _glcd_state,1
                 _0x202003F:
000a7d 2fae      	MOV  R26,R30
000a7e dd08      	RCALL _glcd_putpixel
000a7f 81e8      	LD   R30,Y
000a80 0fee      	LSL  R30
000a81 83e8      	ST   Y,R30
000a82 30e0      	CPI  R30,0
000a83 f411      	BRNE _0x2020041
000a84 e0e1      	LDI  R30,LOW(1)
000a85 83e8      	ST   Y,R30
                 _0x2020041:
000a86 81e8      	LD   R30,Y
000a87 940c 0eb6 	JMP  _0x2100002
                 ; .FEND
                 _glcd_moveto:
                 ; .FSTART _glcd_moveto
000a89 93aa      	ST   -Y,R26
000a8a 81a9      	LDD  R26,Y+1
000a8b 27bb      	CLR  R27
000a8c df50      	RCALL _glcd_clipx
                +
000a8d 93e0 0162+STS _glcd_state + ( 2 ) , R30
                 	__PUTB1MN _glcd_state,2
000a8f 81a8      	LD   R26,Y
000a90 27bb      	CLR  R27
000a91 df60      	RCALL _glcd_clipy
                +
000a92 93e0 0163+STS _glcd_state + ( 3 ) , R30
                 	__PUTB1MN _glcd_state,3
000a94 940c 0e6f 	JMP  _0x2100003
                 ; .FEND
                 _glcd_line:
                 ; .FSTART _glcd_line
000a96 93aa      	ST   -Y,R26
000a97 972b      	SBIW R28,11
000a98 940e 12e9 	CALL __SAVELOCR6
000a9a 89ac      	LDD  R26,Y+20
000a9b 27bb      	CLR  R27
000a9c df40      	RCALL _glcd_clipx
000a9d 8bec      	STD  Y+20,R30
000a9e 89aa      	LDD  R26,Y+18
000a9f 27bb      	CLR  R27
000aa0 df3c      	RCALL _glcd_clipx
000aa1 8bea      	STD  Y+18,R30
000aa2 89ab      	LDD  R26,Y+19
000aa3 27bb      	CLR  R27
000aa4 df4d      	RCALL _glcd_clipy
000aa5 8beb      	STD  Y+19,R30
000aa6 89a9      	LDD  R26,Y+17
000aa7 27bb      	CLR  R27
000aa8 df49      	RCALL _glcd_clipy
000aa9 8be9      	STD  Y+17,R30
000aaa 89ea      	LDD  R30,Y+18
                +
000aab 93e0 0162+STS _glcd_state + ( 2 ) , R30
                 	__PUTB1MN _glcd_state,2
000aad 89e9      	LDD  R30,Y+17
                +
000aae 93e0 0163+STS _glcd_state + ( 3 ) , R30
                 	__PUTB1MN _glcd_state,3
000ab0 e0e1      	LDI  R30,LOW(1)
000ab1 87e8      	STD  Y+8,R30
000ab2 89e9      	LDD  R30,Y+17
000ab3 89ab      	LDD  R26,Y+19
000ab4 17ea      	CP   R30,R26
000ab5 f571      	BRNE _0x2020042
000ab6 891c      	LDD  R17,Y+20
000ab7 89aa      	LDD  R26,Y+18
000ab8 171a      	CP   R17,R26
000ab9 f431      	BRNE _0x2020043
000aba 931a      	ST   -Y,R17
000abb 89ec      	LDD  R30,Y+20
000abc 93ea      	ST   -Y,R30
000abd e0a1      	LDI  R26,LOW(1)
000abe dfaf      	RCALL _glcd_putpixelm_G101
000abf c0c8      	RJMP _0x2100006
                 _0x2020043:
000ac0 89aa      	LDD  R26,Y+18
000ac1 171a      	CP   R17,R26
000ac2 f430      	BRSH _0x2020044
000ac3 89ea      	LDD  R30,Y+18
000ac4 1be1      	SUB  R30,R17
000ac5 2f0e      	MOV  R16,R30
                +
000ac6 e041     +LDI R20 , LOW ( 1 )
000ac7 e050     +LDI R21 , HIGH ( 1 )
                 	__GETWRN 20,21,1
000ac8 c006      	RJMP _0x2020045
                 _0x2020044:
000ac9 89aa      	LDD  R26,Y+18
000aca 2fe1      	MOV  R30,R17
000acb 1bea      	SUB  R30,R26
000acc 2f0e      	MOV  R16,R30
                +
000acd ef4f     +LDI R20 , LOW ( - 1 )
000ace ef5f     +LDI R21 , HIGH ( - 1 )
                 	__GETWRN 20,21,-1
                 _0x2020045:
                 _0x2020047:
000acf 893b      	LDD  R19,Y+19
000ad0 e0e0      	LDI  R30,LOW(0)
000ad1 83ee      	STD  Y+6,R30
                 _0x2020049:
000ad2 940e 0fd5 	CALL SUBOPT_0x1F
000ad4 f438      	BRSH _0x202004B
000ad5 931a      	ST   -Y,R17
000ad6 933a      	ST   -Y,R19
000ad7 9533      	INC  R19
000ad8 85aa      	LDD  R26,Y+10
000ad9 df94      	RCALL _glcd_putpixelm_G101
000ada 83ef      	STD  Y+7,R30
000adb cff6      	RJMP _0x2020049
                 _0x202004B:
000adc 81ef      	LDD  R30,Y+7
000add 87e8      	STD  Y+8,R30
000ade 0f14      	ADD  R17,R20
000adf 2fe0      	MOV  R30,R16
000ae0 5001      	SUBI R16,1
000ae1 30e0      	CPI  R30,0
000ae2 f761      	BRNE _0x2020047
000ae3 c0a4      	RJMP _0x202004C
                 _0x2020042:
000ae4 89ea      	LDD  R30,Y+18
000ae5 89ac      	LDD  R26,Y+20
000ae6 17ea      	CP   R30,R26
000ae7 f539      	BRNE _0x202004D
000ae8 893b      	LDD  R19,Y+19
000ae9 89a9      	LDD  R26,Y+17
000aea 173a      	CP   R19,R26
000aeb f430      	BRSH _0x202004E
000aec 89e9      	LDD  R30,Y+17
000aed 1be3      	SUB  R30,R19
000aee 2f2e      	MOV  R18,R30
000aef e0e1      	LDI  R30,LOW(1)
000af0 e0f0      	LDI  R31,HIGH(1)
000af1 c006      	RJMP _0x202011B
                 _0x202004E:
000af2 89a9      	LDD  R26,Y+17
000af3 2fe3      	MOV  R30,R19
000af4 1bea      	SUB  R30,R26
000af5 2f2e      	MOV  R18,R30
000af6 efef      	LDI  R30,LOW(65535)
000af7 efff      	LDI  R31,HIGH(65535)
                 _0x202011B:
000af8 87ed      	STD  Y+13,R30
000af9 87fe      	STD  Y+13+1,R31
                 _0x2020051:
000afa 891c      	LDD  R17,Y+20
000afb e0e0      	LDI  R30,LOW(0)
000afc 83ee      	STD  Y+6,R30
                 _0x2020053:
000afd 940e 0fd5 	CALL SUBOPT_0x1F
000aff f430      	BRSH _0x2020055
000b00 931a      	ST   -Y,R17
000b01 9513      	INC  R17
000b02 940e 0fdd 	CALL SUBOPT_0x20
000b04 83ef      	STD  Y+7,R30
000b05 cff7      	RJMP _0x2020053
                 _0x2020055:
000b06 81ef      	LDD  R30,Y+7
000b07 87e8      	STD  Y+8,R30
000b08 85ed      	LDD  R30,Y+13
000b09 0f3e      	ADD  R19,R30
000b0a 2fe2      	MOV  R30,R18
000b0b 5021      	SUBI R18,1
000b0c 30e0      	CPI  R30,0
000b0d f761      	BRNE _0x2020051
000b0e c079      	RJMP _0x2020056
                 _0x202004D:
000b0f e0e0      	LDI  R30,LOW(0)
000b10 83ee      	STD  Y+6,R30
                 _0x2020057:
000b11 940e 0fd5 	CALL SUBOPT_0x1F
000b13 f008      	BRLO PC+2
000b14 c073      	RJMP _0x2020059
000b15 891c      	LDD  R17,Y+20
000b16 893b      	LDD  R19,Y+19
000b17 e0e1      	LDI  R30,LOW(1)
000b18 2f2e      	MOV  R18,R30
000b19 2f0e      	MOV  R16,R30
000b1a 89aa      	LDD  R26,Y+18
000b1b 27bb      	CLR  R27
000b1c 89ec      	LDD  R30,Y+20
000b1d e0f0      	LDI  R31,0
000b1e 1bae      	SUB  R26,R30
000b1f 0bbf      	SBC  R27,R31
000b20 01ad      	MOVW R20,R26
000b21 2355      	TST  R21
000b22 f42a      	BRPL _0x202005A
000b23 ef0f      	LDI  R16,LOW(255)
000b24 01fa      	MOVW R30,R20
000b25 940e 1224 	CALL __ANEGW1
000b27 01af      	MOVW R20,R30
                 _0x202005A:
000b28 01fa      	MOVW R30,R20
000b29 0fee      	LSL  R30
000b2a 1fff      	ROL  R31
000b2b 87ef      	STD  Y+15,R30
000b2c 8bf8      	STD  Y+15+1,R31
000b2d 89a9      	LDD  R26,Y+17
000b2e 27bb      	CLR  R27
000b2f 89eb      	LDD  R30,Y+19
000b30 e0f0      	LDI  R31,0
000b31 1bae      	SUB  R26,R30
000b32 0bbf      	SBC  R27,R31
000b33 87ad      	STD  Y+13,R26
000b34 87be      	STD  Y+13+1,R27
000b35 85ae      	LDD  R26,Y+14
000b36 23aa      	TST  R26
000b37 f43a      	BRPL _0x202005B
000b38 ef2f      	LDI  R18,LOW(255)
000b39 85ed      	LDD  R30,Y+13
000b3a 85fe      	LDD  R31,Y+13+1
000b3b 940e 1224 	CALL __ANEGW1
000b3d 87ed      	STD  Y+13,R30
000b3e 87fe      	STD  Y+13+1,R31
                 _0x202005B:
000b3f 85ed      	LDD  R30,Y+13
000b40 85fe      	LDD  R31,Y+13+1
000b41 0fee      	LSL  R30
000b42 1fff      	ROL  R31
000b43 87eb      	STD  Y+11,R30
000b44 87fc      	STD  Y+11+1,R31
000b45 931a      	ST   -Y,R17
000b46 933a      	ST   -Y,R19
000b47 e0a1      	LDI  R26,LOW(1)
000b48 df25      	RCALL _glcd_putpixelm_G101
000b49 87e8      	STD  Y+8,R30
000b4a e0e0      	LDI  R30,LOW(0)
000b4b 87e9      	STD  Y+9,R30
000b4c 87ea      	STD  Y+9+1,R30
000b4d 85ad      	LDD  R26,Y+13
000b4e 85be      	LDD  R27,Y+13+1
000b4f 174a      	CP   R20,R26
000b50 075b      	CPC  R21,R27
000b51 f0bc      	BRLT _0x202005C
                 _0x202005E:
000b52 0f10      	ADD  R17,R16
000b53 85eb      	LDD  R30,Y+11
000b54 85fc      	LDD  R31,Y+11+1
000b55 940e 0fe1 	CALL SUBOPT_0x21
000b57 85a9      	LDD  R26,Y+9
000b58 85ba      	LDD  R27,Y+9+1
000b59 174a      	CP   R20,R26
000b5a 075b      	CPC  R21,R27
000b5b f42c      	BRGE _0x2020060
000b5c 0f32      	ADD  R19,R18
000b5d 85af      	LDD  R26,Y+15
000b5e 89b8      	LDD  R27,Y+15+1
000b5f 940e 0fe8 	CALL SUBOPT_0x22
                 _0x2020060:
000b61 931a      	ST   -Y,R17
000b62 940e 0fdd 	CALL SUBOPT_0x20
000b64 87e8      	STD  Y+8,R30
000b65 89ea      	LDD  R30,Y+18
000b66 17e1      	CP   R30,R17
000b67 f751      	BRNE _0x202005E
000b68 c018      	RJMP _0x2020061
                 _0x202005C:
                 _0x2020063:
000b69 0f32      	ADD  R19,R18
000b6a 85ef      	LDD  R30,Y+15
000b6b 89f8      	LDD  R31,Y+15+1
000b6c 940e 0fe1 	CALL SUBOPT_0x21
000b6e 85ed      	LDD  R30,Y+13
000b6f 85fe      	LDD  R31,Y+13+1
000b70 85a9      	LDD  R26,Y+9
000b71 85ba      	LDD  R27,Y+9+1
000b72 17ea      	CP   R30,R26
000b73 07fb      	CPC  R31,R27
000b74 f42c      	BRGE _0x2020065
000b75 0f10      	ADD  R17,R16
000b76 85ab      	LDD  R26,Y+11
000b77 85bc      	LDD  R27,Y+11+1
000b78 940e 0fe8 	CALL SUBOPT_0x22
                 _0x2020065:
000b7a 931a      	ST   -Y,R17
000b7b 940e 0fdd 	CALL SUBOPT_0x20
000b7d 87e8      	STD  Y+8,R30
000b7e 89e9      	LDD  R30,Y+17
000b7f 17e3      	CP   R30,R19
000b80 f741      	BRNE _0x2020063
                 _0x2020061:
000b81 89eb      	LDD  R30,Y+19
000b82 5fef      	SUBI R30,-LOW(1)
000b83 8beb      	STD  Y+19,R30
000b84 89e9      	LDD  R30,Y+17
000b85 5fef      	SUBI R30,-LOW(1)
000b86 8be9      	STD  Y+17,R30
000b87 cf89      	RJMP _0x2020057
                 _0x2020059:
                 _0x2020056:
                 _0x202004C:
                 _0x2100006:
000b88 940e 12f0 	CALL __LOADLOCR6
000b8a 9665      	ADIW R28,21
000b8b 9508      	RET
                 ; .FEND
                 _glcd_plot8_G101:
                 ; .FSTART _glcd_plot8_G101
000b8c 93ba      	ST   -Y,R27
000b8d 93aa      	ST   -Y,R26
000b8e 9723      	SBIW R28,3
000b8f 940e 12e9 	CALL __SAVELOCR6
000b91 85ed      	LDD  R30,Y+13
000b92 87e8      	STD  Y+8,R30
                +
000b93 91e0 0168+LDS R30 , _glcd_state + ( 8 )
                 	__GETB1MN _glcd_state,8
000b95 83ef      	STD  Y+7,R30
000b96 91e0 0160 	LDS  R30,_glcd_state
000b98 83ee      	STD  Y+6,R30
000b99 89aa      	LDD  R26,Y+18
000b9a 27bb      	CLR  R27
000b9b 85ef      	LDD  R30,Y+15
000b9c 940e 0fef 	CALL SUBOPT_0x23
000b9e 89e8      	LDD  R30,Y+16
000b9f 940e 0ff6 	CALL SUBOPT_0x24
000ba1 89e8      	LDD  R30,Y+16
000ba2 940e 0ffd 	CALL SUBOPT_0x25
000ba4 f071      	BREQ _0x2020073
000ba5 85e8      	LDD  R30,Y+8
000ba6 78e0      	ANDI R30,LOW(0x80)
000ba7 f4f1      	BRNE _0x2020075
000ba8 85ad      	LDD  R26,Y+13
000ba9 85be      	LDD  R27,Y+13+1
000baa e5ea      	LDI  R30,LOW(90)
000bab e0f0      	LDI  R31,HIGH(90)
000bac 940e 1005 	CALL SUBOPT_0x26
000bae f01c      	BRLT _0x2020077
000baf 940e 100e 	CALL SUBOPT_0x27
000bb1 f40c      	BRGE _0x2020078
                 _0x2020077:
000bb2 c013      	RJMP _0x2020076
                 _0x2020078:
                 _0x2020073:
000bb3 2333      	TST  R19
000bb4 f012      	BRMI _0x2020079
000bb5 940e 1013 	CALL SUBOPT_0x28
                 _0x2020079:
000bb7 81af      	LDD  R26,Y+7
000bb8 30a2      	CPI  R26,LOW(0x2)
000bb9 f020      	BRLO _0x202007B
                +
000bba 3022     +CPI R18 , LOW ( 2 )
000bbb e0e0     +LDI R30 , HIGH ( 2 )
000bbc 073e     +CPC R19 , R30
                 	__CPWRN 18,19,2
000bbd f40c      	BRGE _0x202007C
                 _0x202007B:
000bbe c007      	RJMP _0x202007A
                 _0x202007C:
000bbf 940e 1017 	CALL SUBOPT_0x29
000bc1 f421      	BRNE _0x202007D
000bc2 930a      	ST   -Y,R16
000bc3 2fa2      	MOV  R26,R18
000bc4 50a1      	SUBI R26,LOW(1)
000bc5 de41      	RCALL _glcd_setpixel
                 _0x202007D:
                 _0x202007A:
                 _0x2020076:
                 _0x2020075:
000bc6 85e8      	LDD  R30,Y+8
000bc7 78e8      	ANDI R30,LOW(0x88)
000bc8 38e8      	CPI  R30,LOW(0x88)
000bc9 f091      	BREQ _0x202007F
000bca 85e8      	LDD  R30,Y+8
000bcb 78e0      	ANDI R30,LOW(0x80)
000bcc f4c9      	BRNE _0x2020081
000bcd 85ad      	LDD  R26,Y+13
000bce 85be      	LDD  R27,Y+13+1
000bcf 5fa2      	SUBI R26,LOW(-270)
000bd0 4fbe      	SBCI R27,HIGH(-270)
000bd1 940e 1020 	CALL SUBOPT_0x2A
000bd3 f03c      	BRLT _0x2020083
000bd4 85ad      	LDD  R26,Y+13
000bd5 85be      	LDD  R27,Y+13+1
000bd6 5fa2      	SUBI R26,LOW(-270)
000bd7 4fbe      	SBCI R27,HIGH(-270)
000bd8 940e 1025 	CALL SUBOPT_0x2B
000bda f40c      	BRGE _0x2020084
                 _0x2020083:
000bdb c00a      	RJMP _0x2020082
                 _0x2020084:
                 _0x202007F:
000bdc 940e 102a 	CALL SUBOPT_0x2C
000bde f038      	BRLO _0x2020085
000bdf 940e 1031 	CALL SUBOPT_0x2D
000be1 f421      	BRNE _0x2020086
000be2 930a      	ST   -Y,R16
000be3 2fa4      	MOV  R26,R20
000be4 5faf      	SUBI R26,-LOW(1)
000be5 de21      	RCALL _glcd_setpixel
                 _0x2020086:
                 _0x2020085:
                 _0x2020082:
                 _0x2020081:
000be6 89aa      	LDD  R26,Y+18
000be7 27bb      	CLR  R27
000be8 85ef      	LDD  R30,Y+15
000be9 e0f0      	LDI  R31,0
000bea 1bae      	SUB  R26,R30
000beb 0bbf      	SBC  R27,R31
000bec 018d      	MOVW R16,R26
000bed 2311      	TST  R17
000bee f40a      	BRPL PC+2
000bef c045      	RJMP _0x2020087
000bf0 85e8      	LDD  R30,Y+8
000bf1 78e2      	ANDI R30,LOW(0x82)
000bf2 38e2      	CPI  R30,LOW(0x82)
000bf3 f091      	BREQ _0x2020089
000bf4 85e8      	LDD  R30,Y+8
000bf5 78e0      	ANDI R30,LOW(0x80)
000bf6 f511      	BRNE _0x202008B
000bf7 85ad      	LDD  R26,Y+13
000bf8 85be      	LDD  R27,Y+13+1
000bf9 5aa6      	SUBI R26,LOW(-90)
000bfa 4fbf      	SBCI R27,HIGH(-90)
000bfb 940e 1020 	CALL SUBOPT_0x2A
000bfd f03c      	BRLT _0x202008D
000bfe 85ad      	LDD  R26,Y+13
000bff 85be      	LDD  R27,Y+13+1
000c00 5aa6      	SUBI R26,LOW(-90)
000c01 4fbf      	SBCI R27,HIGH(-90)
000c02 940e 1025 	CALL SUBOPT_0x2B
000c04 f40c      	BRGE _0x202008E
                 _0x202008D:
000c05 c013      	RJMP _0x202008C
                 _0x202008E:
                 _0x2020089:
000c06 2333      	TST  R19
000c07 f012      	BRMI _0x202008F
000c08 940e 1013 	CALL SUBOPT_0x28
                 _0x202008F:
000c0a 81af      	LDD  R26,Y+7
000c0b 30a2      	CPI  R26,LOW(0x2)
000c0c f020      	BRLO _0x2020091
                +
000c0d 3022     +CPI R18 , LOW ( 2 )
000c0e e0e0     +LDI R30 , HIGH ( 2 )
000c0f 073e     +CPC R19 , R30
                 	__CPWRN 18,19,2
000c10 f40c      	BRGE _0x2020092
                 _0x2020091:
000c11 c007      	RJMP _0x2020090
                 _0x2020092:
000c12 940e 1017 	CALL SUBOPT_0x29
000c14 f421      	BRNE _0x2020093
000c15 930a      	ST   -Y,R16
000c16 2fa2      	MOV  R26,R18
000c17 50a1      	SUBI R26,LOW(1)
000c18 ddee      	RCALL _glcd_setpixel
                 _0x2020093:
                 _0x2020090:
                 _0x202008C:
                 _0x202008B:
000c19 85e8      	LDD  R30,Y+8
000c1a 78e4      	ANDI R30,LOW(0x84)
000c1b 38e4      	CPI  R30,LOW(0x84)
000c1c f071      	BREQ _0x2020095
000c1d 85e8      	LDD  R30,Y+8
000c1e 78e0      	ANDI R30,LOW(0x80)
000c1f f4a9      	BRNE _0x2020097
000c20 85ad      	LDD  R26,Y+13
000c21 85be      	LDD  R27,Y+13+1
000c22 e0ee      	LDI  R30,LOW(270)
000c23 e0f1      	LDI  R31,HIGH(270)
000c24 940e 1005 	CALL SUBOPT_0x26
000c26 f01c      	BRLT _0x2020099
000c27 940e 100e 	CALL SUBOPT_0x27
000c29 f40c      	BRGE _0x202009A
                 _0x2020099:
000c2a c00a      	RJMP _0x2020098
                 _0x202009A:
                 _0x2020095:
000c2b 940e 102a 	CALL SUBOPT_0x2C
000c2d f038      	BRLO _0x202009B
000c2e 940e 1031 	CALL SUBOPT_0x2D
000c30 f421      	BRNE _0x202009C
000c31 930a      	ST   -Y,R16
000c32 2fa4      	MOV  R26,R20
000c33 5faf      	SUBI R26,-LOW(1)
000c34 ddd2      	RCALL _glcd_setpixel
                 _0x202009C:
                 _0x202009B:
                 _0x2020098:
                 _0x2020097:
                 _0x2020087:
000c35 89aa      	LDD  R26,Y+18
000c36 27bb      	CLR  R27
000c37 89e8      	LDD  R30,Y+16
000c38 940e 0fef 	CALL SUBOPT_0x23
000c3a 85ef      	LDD  R30,Y+15
000c3b 940e 0ff6 	CALL SUBOPT_0x24
000c3d 85ef      	LDD  R30,Y+15
000c3e 940e 0ffd 	CALL SUBOPT_0x25
000c40 f081      	BREQ _0x202009E
000c41 85e8      	LDD  R30,Y+8
000c42 78e0      	ANDI R30,LOW(0x80)
000c43 f4f1      	BRNE _0x20200A0
000c44 85eb      	LDD  R30,Y+11
000c45 85fc      	LDD  R31,Y+11+1
000c46 85ad      	LDD  R26,Y+13
000c47 85be      	LDD  R27,Y+13+1
000c48 17ae      	CP   R26,R30
000c49 07bf      	CPC  R27,R31
000c4a f02c      	BRLT _0x20200A2
000c4b 85e9      	LDD  R30,Y+9
000c4c 85fa      	LDD  R31,Y+9+1
000c4d 17ea      	CP   R30,R26
000c4e 07fb      	CPC  R31,R27
000c4f f40c      	BRGE _0x20200A3
                 _0x20200A2:
000c50 c011      	RJMP _0x20200A1
                 _0x20200A3:
                 _0x202009E:
000c51 2333      	TST  R19
000c52 f07a      	BRMI _0x20200A4
000c53 940e 1013 	CALL SUBOPT_0x28
000c55 81af      	LDD  R26,Y+7
000c56 30a2      	CPI  R26,LOW(0x2)
000c57 f050      	BRLO _0x20200A5
000c58 2fe0      	MOV  R30,R16
000c59 5fee      	SUBI R30,-LOW(2)
000c5a 940e 103a 	CALL SUBOPT_0x2E
000c5c f429      	BRNE _0x20200A6
000c5d 2fe0      	MOV  R30,R16
000c5e 5fef      	SUBI R30,-LOW(1)
000c5f 93ea      	ST   -Y,R30
000c60 2fa2      	MOV  R26,R18
000c61 dda5      	RCALL _glcd_setpixel
                 _0x20200A6:
                 _0x20200A5:
                 _0x20200A4:
                 _0x20200A1:
                 _0x20200A0:
000c62 85e8      	LDD  R30,Y+8
000c63 78e8      	ANDI R30,LOW(0x88)
000c64 38e8      	CPI  R30,LOW(0x88)
000c65 f071      	BREQ _0x20200A8
000c66 85e8      	LDD  R30,Y+8
000c67 78e0      	ANDI R30,LOW(0x80)
000c68 f4c1      	BRNE _0x20200AA
000c69 85ad      	LDD  R26,Y+13
000c6a 85be      	LDD  R27,Y+13+1
000c6b e6e8      	LDI  R30,LOW(360)
000c6c e0f1      	LDI  R31,HIGH(360)
000c6d 940e 1005 	CALL SUBOPT_0x26
000c6f f01c      	BRLT _0x20200AC
000c70 940e 100e 	CALL SUBOPT_0x27
000c72 f40c      	BRGE _0x20200AD
                 _0x20200AC:
000c73 c00d      	RJMP _0x20200AB
                 _0x20200AD:
                 _0x20200A8:
000c74 940e 102a 	CALL SUBOPT_0x2C
000c76 f050      	BRLO _0x20200AE
000c77 2fe0      	MOV  R30,R16
000c78 5fee      	SUBI R30,-LOW(2)
000c79 940e 1042 	CALL SUBOPT_0x2F
000c7b f429      	BRNE _0x20200AF
000c7c 2fe0      	MOV  R30,R16
000c7d 5fef      	SUBI R30,-LOW(1)
000c7e 93ea      	ST   -Y,R30
000c7f 2fa4      	MOV  R26,R20
000c80 dd86      	RCALL _glcd_setpixel
                 _0x20200AF:
                 _0x20200AE:
                 _0x20200AB:
                 _0x20200AA:
000c81 89aa      	LDD  R26,Y+18
000c82 27bb      	CLR  R27
000c83 89e8      	LDD  R30,Y+16
000c84 e0f0      	LDI  R31,0
000c85 1bae      	SUB  R26,R30
000c86 0bbf      	SBC  R27,R31
000c87 018d      	MOVW R16,R26
000c88 2311      	TST  R17
000c89 f40a      	BRPL PC+2
000c8a c050      	RJMP _0x20200B0
000c8b 85e8      	LDD  R30,Y+8
000c8c 78e2      	ANDI R30,LOW(0x82)
000c8d 38e2      	CPI  R30,LOW(0x82)
000c8e f071      	BREQ _0x20200B2
000c8f 85e8      	LDD  R30,Y+8
000c90 78e0      	ANDI R30,LOW(0x80)
000c91 f509      	BRNE _0x20200B4
000c92 85ad      	LDD  R26,Y+13
000c93 85be      	LDD  R27,Y+13+1
000c94 ebe4      	LDI  R30,LOW(180)
000c95 e0f0      	LDI  R31,HIGH(180)
000c96 940e 1005 	CALL SUBOPT_0x26
000c98 f01c      	BRLT _0x20200B6
000c99 940e 100e 	CALL SUBOPT_0x27
000c9b f40c      	BRGE _0x20200B7
                 _0x20200B6:
000c9c c016      	RJMP _0x20200B5
                 _0x20200B7:
                 _0x20200B2:
000c9d 2333      	TST  R19
000c9e f0a2      	BRMI _0x20200B8
000c9f 940e 1013 	CALL SUBOPT_0x28
000ca1 81af      	LDD  R26,Y+7
000ca2 30a2      	CPI  R26,LOW(0x2)
000ca3 f020      	BRLO _0x20200BA
                +
000ca4 3002     +CPI R16 , LOW ( 2 )
000ca5 e0e0     +LDI R30 , HIGH ( 2 )
000ca6 071e     +CPC R17 , R30
                 	__CPWRN 16,17,2
000ca7 f40c      	BRGE _0x20200BB
                 _0x20200BA:
000ca8 c00a      	RJMP _0x20200B9
                 _0x20200BB:
000ca9 2fe0      	MOV  R30,R16
000caa 50e2      	SUBI R30,LOW(2)
000cab 940e 103a 	CALL SUBOPT_0x2E
000cad f429      	BRNE _0x20200BC
000cae 2fe0      	MOV  R30,R16
000caf 50e1      	SUBI R30,LOW(1)
000cb0 93ea      	ST   -Y,R30
000cb1 2fa2      	MOV  R26,R18
000cb2 dd54      	RCALL _glcd_setpixel
                 _0x20200BC:
                 _0x20200B9:
                 _0x20200B8:
                 _0x20200B5:
                 _0x20200B4:
000cb3 85e8      	LDD  R30,Y+8
000cb4 78e4      	ANDI R30,LOW(0x84)
000cb5 38e4      	CPI  R30,LOW(0x84)
000cb6 f091      	BREQ _0x20200BE
000cb7 85e8      	LDD  R30,Y+8
000cb8 78e0      	ANDI R30,LOW(0x80)
000cb9 f509      	BRNE _0x20200C0
000cba 85ad      	LDD  R26,Y+13
000cbb 85be      	LDD  R27,Y+13+1
000cbc 54ac      	SUBI R26,LOW(-180)
000cbd 4fbf      	SBCI R27,HIGH(-180)
000cbe 940e 1020 	CALL SUBOPT_0x2A
000cc0 f03c      	BRLT _0x20200C2
000cc1 85ad      	LDD  R26,Y+13
000cc2 85be      	LDD  R27,Y+13+1
000cc3 54ac      	SUBI R26,LOW(-180)
000cc4 4fbf      	SBCI R27,HIGH(-180)
000cc5 940e 1025 	CALL SUBOPT_0x2B
000cc7 f40c      	BRGE _0x20200C3
                 _0x20200C2:
000cc8 c012      	RJMP _0x20200C1
                 _0x20200C3:
                 _0x20200BE:
000cc9 940e 102a 	CALL SUBOPT_0x2C
000ccb f020      	BRLO _0x20200C5
                +
000ccc 3002     +CPI R16 , LOW ( 2 )
000ccd e0e0     +LDI R30 , HIGH ( 2 )
000cce 071e     +CPC R17 , R30
                 	__CPWRN 16,17,2
000ccf f40c      	BRGE _0x20200C6
                 _0x20200C5:
000cd0 c00a      	RJMP _0x20200C4
                 _0x20200C6:
000cd1 2fe0      	MOV  R30,R16
000cd2 50e2      	SUBI R30,LOW(2)
000cd3 940e 1042 	CALL SUBOPT_0x2F
000cd5 f429      	BRNE _0x20200C7
000cd6 2fe0      	MOV  R30,R16
000cd7 50e1      	SUBI R30,LOW(1)
000cd8 93ea      	ST   -Y,R30
000cd9 2fa4      	MOV  R26,R20
000cda dd2c      	RCALL _glcd_setpixel
                 _0x20200C7:
                 _0x20200C4:
                 _0x20200C1:
                 _0x20200C0:
                 _0x20200B0:
000cdb 940e 12f0 	CALL __LOADLOCR6
000cdd 9663      	ADIW R28,19
000cde 9508      	RET
                 ; .FEND
                 _glcd_line2_G101:
                 ; .FSTART _glcd_line2_G101
000cdf 93aa      	ST   -Y,R26
000ce0 940e 12eb 	CALL __SAVELOCR4
000ce2 81af      	LDD  R26,Y+7
000ce3 27bb      	CLR  R27
000ce4 81ed      	LDD  R30,Y+5
000ce5 e0f0      	LDI  R31,0
000ce6 1bae      	SUB  R26,R30
000ce7 0bbf      	SBC  R27,R31
000ce8 dcf4      	RCALL _glcd_clipx
000ce9 2f1e      	MOV  R17,R30
000cea 81af      	LDD  R26,Y+7
000ceb 27bb      	CLR  R27
000cec 81ed      	LDD  R30,Y+5
000ced e0f0      	LDI  R31,0
000cee 0fae      	ADD  R26,R30
000cef 1fbf      	ADC  R27,R31
000cf0 dcec      	RCALL _glcd_clipx
000cf1 2f0e      	MOV  R16,R30
000cf2 81ae      	LDD  R26,Y+6
000cf3 27bb      	CLR  R27
000cf4 81ec      	LDD  R30,Y+4
000cf5 e0f0      	LDI  R31,0
000cf6 1bae      	SUB  R26,R30
000cf7 0bbf      	SBC  R27,R31
000cf8 dcf9      	RCALL _glcd_clipy
000cf9 2f3e      	MOV  R19,R30
000cfa 81ae      	LDD  R26,Y+6
000cfb 27bb      	CLR  R27
000cfc 81ec      	LDD  R30,Y+4
000cfd e0f0      	LDI  R31,0
000cfe 0fae      	ADD  R26,R30
000cff 1fbf      	ADC  R27,R31
000d00 dcf1      	RCALL _glcd_clipy
000d01 2f2e      	MOV  R18,R30
000d02 931a      	ST   -Y,R17
000d03 933a      	ST   -Y,R19
000d04 930a      	ST   -Y,R16
000d05 2fa3      	MOV  R26,R19
000d06 dd8f      	RCALL _glcd_line
000d07 931a      	ST   -Y,R17
000d08 932a      	ST   -Y,R18
000d09 930a      	ST   -Y,R16
000d0a 2fa2      	MOV  R26,R18
000d0b dd8a      	RCALL _glcd_line
000d0c 940e 12f2 	CALL __LOADLOCR4
000d0e 9628      	ADIW R28,8
000d0f 9508      	RET
                 ; .FEND
                 _glcd_quadrant_G101:
                 ; .FSTART _glcd_quadrant_G101
000d10 93aa      	ST   -Y,R26
000d11 940e 12e9 	CALL __SAVELOCR6
000d13 85a9      	LDD  R26,Y+9
000d14 38a0      	CPI  R26,LOW(0x80)
000d15 f418      	BRSH _0x20200C9
000d16 85a8      	LDD  R26,Y+8
000d17 34a0      	CPI  R26,LOW(0x40)
000d18 f008      	BRLO _0x20200C8
                 _0x20200C9:
000d19 c04f      	RJMP _0x2100005
                 _0x20200C8:
                +
000d1a 9150 0168+LDS R21 , _glcd_state + ( 8 )
                 	__GETBRMN 21,_glcd_state,8
                 _0x20200CB:
000d1c 2fe5      	MOV  R30,R21
000d1d 5051      	SUBI R21,1
000d1e 30e0      	CPI  R30,0
000d1f f409      	BRNE PC+2
000d20 c048      	RJMP _0x20200CD
000d21 81ef      	LDD  R30,Y+7
000d22 30e0      	CPI  R30,0
000d23 f409      	BRNE _0x20200CE
000d24 c044      	RJMP _0x2100005
                 _0x20200CE:
000d25 81ef      	LDD  R30,Y+7
000d26 50e1      	SUBI R30,LOW(1)
000d27 83ef      	STD  Y+7,R30
000d28 5fef      	SUBI R30,-LOW(1)
000d29 2f0e      	MOV  R16,R30
000d2a e0f0      	LDI  R31,0
000d2b e0a5      	LDI  R26,LOW(5)
000d2c e0b0      	LDI  R27,HIGH(5)
000d2d 1bae      	SUB  R26,R30
000d2e 0bbf      	SBC  R27,R31
000d2f 01fd      	MOVW R30,R26
000d30 940e 1240 	CALL __LSLW2
000d32 940e 1245 	CALL __ASRW2
000d34 019f      	MOVW R18,R30
000d35 e010      	LDI  R17,LOW(0)
                 _0x20200D0:
000d36 81ae      	LDD  R26,Y+6
000d37 34a0      	CPI  R26,LOW(0x40)
000d38 f459      	BRNE _0x20200D2
000d39 940e 104a 	CALL SUBOPT_0x30
000d3b 931a      	ST   -Y,R17
000d3c 2fa0      	MOV  R26,R16
000d3d dfa1      	RCALL _glcd_line2_G101
000d3e 940e 104a 	CALL SUBOPT_0x30
000d40 930a      	ST   -Y,R16
000d41 2fa1      	MOV  R26,R17
000d42 df9c      	RCALL _glcd_line2_G101
000d43 c00f      	RJMP _0x20200D3
                 _0x20200D2:
000d44 940e 104a 	CALL SUBOPT_0x30
000d46 931a      	ST   -Y,R17
000d47 930a      	ST   -Y,R16
000d48 85ea      	LDD  R30,Y+10
000d49 e0f0      	LDI  R31,0
000d4a 93fa      	ST   -Y,R31
000d4b 93ea      	ST   -Y,R30
000d4c e0e0      	LDI  R30,LOW(0)
000d4d e0f0      	LDI  R31,HIGH(0)
000d4e 93fa      	ST   -Y,R31
000d4f 93ea      	ST   -Y,R30
000d50 e0a0      	LDI  R26,LOW(0)
000d51 e0b0      	LDI  R27,0
000d52 de39      	RCALL _glcd_plot8_G101
                 _0x20200D3:
000d53 5f1f      	SUBI R17,-1
000d54 2333      	TST  R19
000d55 f41a      	BRPL _0x20200D4
000d56 2fe1      	MOV  R30,R17
000d57 e0f0      	LDI  R31,0
000d58 c008      	RJMP _0x202011C
                 _0x20200D4:
000d59 5001      	SUBI R16,1
000d5a 2fa1      	MOV  R26,R17
000d5b 27bb      	CLR  R27
000d5c 2fe0      	MOV  R30,R16
000d5d e0f0      	LDI  R31,0
000d5e 1bae      	SUB  R26,R30
000d5f 0bbf      	SBC  R27,R31
000d60 01fd      	MOVW R30,R26
                 _0x202011C:
000d61 0fee      	LSL  R30
000d62 1fff      	ROL  R31
000d63 9631      	ADIW R30,1
                +
000d64 0f2e     +ADD R18 , R30
000d65 1f3f     +ADC R19 , R31
                 	__ADDWRR 18,19,30,31
000d66 1701      	CP   R16,R17
000d67 f670      	BRSH _0x20200D0
000d68 cfb3      	RJMP _0x20200CB
                 _0x20200CD:
                 _0x2100005:
000d69 940e 12f0 	CALL __LOADLOCR6
000d6b 962a      	ADIW R28,10
000d6c 9508      	RET
                 ; .FEND
                 _glcd_circle:
                 ; .FSTART _glcd_circle
000d6d 93aa      	ST   -Y,R26
000d6e 81ea      	LDD  R30,Y+2
000d6f 93ea      	ST   -Y,R30
000d70 81ea      	LDD  R30,Y+2
000d71 93ea      	ST   -Y,R30
000d72 81ea      	LDD  R30,Y+2
000d73 93ea      	ST   -Y,R30
000d74 e8af      	LDI  R26,LOW(143)
000d75 df9a      	RCALL _glcd_quadrant_G101
000d76 940c 0eb6 	JMP  _0x2100002
                 ; .FEND
                 
                 	.CSEG
                 _ftrunc:
                 ; .FSTART _ftrunc
000d78 940e 12b6 	CALL __PUTPARD2
000d7a 817b         ldd  r23,y+3
000d7b 816a         ldd  r22,y+2
000d7c 81f9         ldd  r31,y+1
000d7d 81e8         ld   r30,y
000d7e fb77         bst  r23,7
000d7f 0f77         lsl  r23
000d80 fd67         sbrc r22,7
000d81 6071         sbr  r23,1
000d82 2f97         mov  r25,r23
000d83 579e         subi r25,0x7e
000d84 f081         breq __ftrunc0
000d85 f078         brcs __ftrunc0
000d86 3198         cpi  r25,24
000d87 f490         brsh __ftrunc1
000d88 27aa         clr  r26
000d89 27bb         clr  r27
000d8a 2788         clr  r24
                 __ftrunc2:
000d8b 9408         sec
000d8c 9587         ror  r24
000d8d 95b7         ror  r27
000d8e 95a7         ror  r26
000d8f 959a         dec  r25
000d90 f7d1         brne __ftrunc2
000d91 23ea         and  r30,r26
000d92 23fb         and  r31,r27
000d93 2368         and  r22,r24
000d94 c005         rjmp __ftrunc1
                 __ftrunc0:
000d95 94e8         clt
000d96 2777         clr  r23
000d97 27ee         clr  r30
000d98 27ff         clr  r31
000d99 2766         clr  r22
                 __ftrunc1:
000d9a 776f         cbr  r22,0x80
000d9b 9576         lsr  r23
000d9c f408         brcc __ftrunc3
000d9d 6860         sbr  r22,0x80
                 __ftrunc3:
000d9e f977         bld  r23,7
000d9f 91a9         ld   r26,y+
000da0 91b9         ld   r27,y+
000da1 9189         ld   r24,y+
000da2 9199         ld   r25,y+
000da3 17ea         cp   r30,r26
000da4 07fb         cpc  r31,r27
000da5 0768         cpc  r22,r24
000da6 0779         cpc  r23,r25
000da7 fb97         bst  r25,7
000da8 9508         ret
                 ; .FEND
                 _floor:
                 ; .FSTART _floor
000da9 940e 104f 	CALL SUBOPT_0x31
000dab 940e 0d78 	CALL _ftrunc
000dad 940e 12b1 	CALL __PUTD1S0
000daf f421          brne __floor1
                 __floor0:
000db0 940e 12a7 	CALL __GETD1S0
000db2 940c 0ed5 	JMP  _0x2100001
                 __floor1:
000db4 f7de          brtc __floor0
000db5 940e 12a7 	CALL __GETD1S0
                +
000db7 e0a0     +LDI R26 , LOW ( 0x3F800000 )
000db8 e0b0     +LDI R27 , HIGH ( 0x3F800000 )
000db9 e880     +LDI R24 , BYTE3 ( 0x3F800000 )
000dba e39f     +LDI R25 , BYTE4 ( 0x3F800000 )
                 	__GETD2N 0x3F800000
000dbb 940e 111a 	CALL __SUBF12
000dbd c117      	RJMP _0x2100001
                 ; .FEND
                 _sin:
                 ; .FSTART _sin
000dbe 940e 12b6 	CALL __PUTPARD2
000dc0 9724      	SBIW R28,4
000dc1 931a      	ST   -Y,R17
000dc2 e010      	LDI  R17,0
000dc3 940e 1054 	CALL SUBOPT_0x32
                +
000dc5 e8e3     +LDI R30 , LOW ( 0x3E22F983 )
000dc6 eff9     +LDI R31 , HIGH ( 0x3E22F983 )
000dc7 e262     +LDI R22 , BYTE3 ( 0x3E22F983 )
000dc8 e37e     +LDI R23 , BYTE4 ( 0x3E22F983 )
                 	__GETD1N 0x3E22F983
000dc9 940e 1171 	CALL __MULF12
000dcb 940e 1059 	CALL SUBOPT_0x33
000dcd dfdb      	RCALL _floor
000dce 940e 1054 	CALL SUBOPT_0x32
000dd0 940e 12bb 	CALL __SWAPD12
000dd2 940e 111a 	CALL __SUBF12
000dd4 940e 1059 	CALL SUBOPT_0x33
                +
000dd6 e0e0     +LDI R30 , LOW ( 0x3F000000 )
000dd7 e0f0     +LDI R31 , HIGH ( 0x3F000000 )
000dd8 e060     +LDI R22 , BYTE3 ( 0x3F000000 )
000dd9 e37f     +LDI R23 , BYTE4 ( 0x3F000000 )
                 	__GETD1N 0x3F000000
000dda 940e 1204 	CALL __CMPF12
000ddc f009      	BREQ PC+2
000ddd f408      	BRCC PC+2
000dde c009      	RJMP _0x2060017
000ddf 940e 105e 	CALL SUBOPT_0x34
                +
000de1 e0a0     +LDI R26 , LOW ( 0x3F000000 )
000de2 e0b0     +LDI R27 , HIGH ( 0x3F000000 )
000de3 e080     +LDI R24 , BYTE3 ( 0x3F000000 )
000de4 e39f     +LDI R25 , BYTE4 ( 0x3F000000 )
                 	__GETD2N 0x3F000000
000de5 940e 1063 	CALL SUBOPT_0x35
000de7 e011      	LDI  R17,LOW(1)
                 _0x2060017:
000de8 940e 1054 	CALL SUBOPT_0x32
                +
000dea e0e0     +LDI R30 , LOW ( 0x3E800000 )
000deb e0f0     +LDI R31 , HIGH ( 0x3E800000 )
000dec e860     +LDI R22 , BYTE3 ( 0x3E800000 )
000ded e37e     +LDI R23 , BYTE4 ( 0x3E800000 )
                 	__GETD1N 0x3E800000
000dee 940e 1204 	CALL __CMPF12
000df0 f009      	BREQ PC+2
000df1 f408      	BRCC PC+2
000df2 c008      	RJMP _0x2060018
000df3 940e 1054 	CALL SUBOPT_0x32
                +
000df5 e0e0     +LDI R30 , LOW ( 0x3F000000 )
000df6 e0f0     +LDI R31 , HIGH ( 0x3F000000 )
000df7 e060     +LDI R22 , BYTE3 ( 0x3F000000 )
000df8 e37f     +LDI R23 , BYTE4 ( 0x3F000000 )
                 	__GETD1N 0x3F000000
000df9 940e 1063 	CALL SUBOPT_0x35
                 _0x2060018:
000dfb 3010      	CPI  R17,0
000dfc f041      	BREQ _0x2060019
000dfd 940e 105e 	CALL SUBOPT_0x34
000dff 940e 107b 	CALL __ANEGF1
                +
000e01 83ed     +STD Y + 5 , R30
000e02 83fe     +STD Y + 5 + 1 , R31
000e03 836f     +STD Y + 5 + 2 , R22
000e04 8778     +STD Y + 5 + 3 , R23
                 	__PUTD1S 5
                 _0x2060019:
000e05 940e 105e 	CALL SUBOPT_0x34
000e07 940e 1054 	CALL SUBOPT_0x32
000e09 940e 1171 	CALL __MULF12
                +
000e0b 83e9     +STD Y + 1 , R30
000e0c 83fa     +STD Y + 1 + 1 , R31
000e0d 836b     +STD Y + 1 + 2 , R22
000e0e 837c     +STD Y + 1 + 3 , R23
                 	__PUTD1S 1
                +
000e0f eba1     +LDI R26 , LOW ( 0x4226C4B1 )
000e10 ecb4     +LDI R27 , HIGH ( 0x4226C4B1 )
000e11 e286     +LDI R24 , BYTE3 ( 0x4226C4B1 )
000e12 e492     +LDI R25 , BYTE4 ( 0x4226C4B1 )
                 	__GETD2N 0x4226C4B1
000e13 940e 1171 	CALL __MULF12
000e15 01df      	MOVW R26,R30
000e16 01cb      	MOVW R24,R22
                +
000e17 e1ed     +LDI R30 , LOW ( 0x422DE51D )
000e18 eef5     +LDI R31 , HIGH ( 0x422DE51D )
000e19 e26d     +LDI R22 , BYTE3 ( 0x422DE51D )
000e1a e472     +LDI R23 , BYTE4 ( 0x422DE51D )
                 	__GETD1N 0x422DE51D
000e1b 940e 12bb 	CALL __SWAPD12
000e1d 940e 111a 	CALL __SUBF12
000e1f 940e 106a 	CALL SUBOPT_0x36
                +
000e21 e4ac     +LDI R26 , LOW ( 0x4104534C )
000e22 e5b3     +LDI R27 , HIGH ( 0x4104534C )
000e23 e084     +LDI R24 , BYTE3 ( 0x4104534C )
000e24 e491     +LDI R25 , BYTE4 ( 0x4104534C )
                 	__GETD2N 0x4104534C
000e25 940e 1121 	CALL __ADDF12
000e27 940e 1054 	CALL SUBOPT_0x32
000e29 940e 1171 	CALL __MULF12
000e2b 937f      	PUSH R23
000e2c 936f      	PUSH R22
000e2d 93ff      	PUSH R31
000e2e 93ef      	PUSH R30
                +
000e2f 81e9     +LDD R30 , Y + 1
000e30 81fa     +LDD R31 , Y + 1 + 1
000e31 816b     +LDD R22 , Y + 1 + 2
000e32 817c     +LDD R23 , Y + 1 + 3
                 	__GETD1S 1
                +
000e33 e1a1     +LDI R26 , LOW ( 0x3FDEED11 )
000e34 eebd     +LDI R27 , HIGH ( 0x3FDEED11 )
000e35 ed8e     +LDI R24 , BYTE3 ( 0x3FDEED11 )
000e36 e39f     +LDI R25 , BYTE4 ( 0x3FDEED11 )
                 	__GETD2N 0x3FDEED11
000e37 940e 1121 	CALL __ADDF12
000e39 940e 106a 	CALL SUBOPT_0x36
                +
000e3b e5ae     +LDI R26 , LOW ( 0x3FA87B5E )
000e3c e7bb     +LDI R27 , HIGH ( 0x3FA87B5E )
000e3d ea88     +LDI R24 , BYTE3 ( 0x3FA87B5E )
000e3e e39f     +LDI R25 , BYTE4 ( 0x3FA87B5E )
                 	__GETD2N 0x3FA87B5E
000e3f 940e 1121 	CALL __ADDF12
000e41 91af      	POP  R26
000e42 91bf      	POP  R27
000e43 918f      	POP  R24
000e44 919f      	POP  R25
000e45 940e 11bf 	CALL __DIVF21
000e47 8118      	LDD  R17,Y+0
                 _0x2100004:
000e48 9629      	ADIW R28,9
000e49 9508      	RET
                 ; .FEND
                 _cos:
                 ; .FSTART _cos
000e4a 940e 104f 	CALL SUBOPT_0x31
                +
000e4c edeb     +LDI R30 , LOW ( 0x3FC90FDB )
000e4d e0ff     +LDI R31 , HIGH ( 0x3FC90FDB )
000e4e ec69     +LDI R22 , BYTE3 ( 0x3FC90FDB )
000e4f e37f     +LDI R23 , BYTE4 ( 0x3FC90FDB )
                 	__GETD1N 0x3FC90FDB
000e50 940e 111a 	CALL __SUBF12
000e52 01df      	MOVW R26,R30
000e53 01cb      	MOVW R24,R22
000e54 df69      	RCALL _sin
000e55 c07f      	RJMP _0x2100001
                 ; .FEND
                 
                 	.CSEG
                 _memset:
                 ; .FSTART _memset
000e56 93ba      	ST   -Y,R27
000e57 93aa      	ST   -Y,R26
000e58 81b9          ldd  r27,y+1
000e59 81a8          ld   r26,y
000e5a 9610          adiw r26,0
000e5b f031          breq memset1
000e5c 81fc          ldd  r31,y+4
000e5d 81eb          ldd  r30,y+3
000e5e 816a          ldd  r22,y+2
                 memset0:
000e5f 9361          st   z+,r22
000e60 9711          sbiw r26,1
000e61 f7e9          brne memset0
                 memset1:
000e62 81eb          ldd  r30,y+3
000e63 81fc          ldd  r31,y+4
000e64 9625      	ADIW R28,5
000e65 9508      	RET
                 ; .FEND
                 
                 	.CSEG
                 _glcd_getmask:
                 ; .FSTART _glcd_getmask
000e66 93aa      	ST   -Y,R26
000e67 81e8      	LD   R30,Y
000e68 e0f0      	LDI  R31,0
000e69 5ce4      	SUBI R30,LOW(-__glcd_mask*2)
000e6a 4ff7      	SBCI R31,HIGH(-__glcd_mask*2)
000e6b 91a4      	LPM  R26,Z
000e6c 81e9      	LDD  R30,Y+1
000e6d 940e 1230 	CALL __LSLB12
                 _0x2100003:
000e6f 9622      	ADIW R28,2
000e70 9508      	RET
                 ; .FEND
                 _glcd_mappixcolor1bit:
                 ; .FSTART _glcd_mappixcolor1bit
000e71 93aa      	ST   -Y,R26
000e72 931a      	ST   -Y,R17
000e73 81e9      	LDD  R30,Y+1
000e74 30e7      	CPI  R30,LOW(0x7)
000e75 f011      	BREQ _0x20A0007
000e76 30ea      	CPI  R30,LOW(0xA)
000e77 f419      	BRNE _0x20A0008
                 _0x20A0007:
000e78 9110 0160 	LDS  R17,_glcd_state
000e7a c009      	RJMP _0x20A0009
                 _0x20A0008:
000e7b 30e9      	CPI  R30,LOW(0x9)
000e7c f419      	BRNE _0x20A000B
                +
000e7d 9110 0161+LDS R17 , _glcd_state + ( 1 )
                 	__GETBRMN 17,_glcd_state,1
000e7f c004      	RJMP _0x20A0009
                 _0x20A000B:
000e80 30e8      	CPI  R30,LOW(0x8)
000e81 f4a1      	BRNE _0x20A0005
                +
000e82 9110 0170+LDS R17 , _glcd_state + ( 16 )
                 	__GETBRMN 17,_glcd_state,16
                 _0x20A0009:
                +
000e84 91e0 0161+LDS R30 , _glcd_state + ( 1 )
                 	__GETB1MN _glcd_state,1
000e86 30e0      	CPI  R30,0
000e87 f049      	BREQ _0x20A000E
000e88 3010      	CPI  R17,0
000e89 f019      	BREQ _0x20A000F
000e8a efef      	LDI  R30,LOW(255)
000e8b 8118      	LDD  R17,Y+0
000e8c c029      	RJMP _0x2100002
                 _0x20A000F:
000e8d 81ea      	LDD  R30,Y+2
000e8e 95e0      	COM  R30
000e8f 8118      	LDD  R17,Y+0
000e90 c025      	RJMP _0x2100002
                 _0x20A000E:
000e91 3010      	CPI  R17,0
000e92 f419      	BRNE _0x20A0011
000e93 e0e0      	LDI  R30,LOW(0)
000e94 8118      	LDD  R17,Y+0
000e95 c020      	RJMP _0x2100002
                 _0x20A0011:
                 _0x20A0005:
000e96 81ea      	LDD  R30,Y+2
000e97 8118      	LDD  R17,Y+0
000e98 c01d      	RJMP _0x2100002
                 ; .FEND
                 _glcd_readmem:
                 ; .FSTART _glcd_readmem
000e99 93ba      	ST   -Y,R27
000e9a 93aa      	ST   -Y,R26
000e9b 81ea      	LDD  R30,Y+2
000e9c 30e1      	CPI  R30,LOW(0x1)
000e9d f421      	BRNE _0x20A0015
000e9e 81e8      	LD   R30,Y
000e9f 81f9      	LDD  R31,Y+1
000ea0 91e4      	LPM  R30,Z
000ea1 c014      	RJMP _0x2100002
                 _0x20A0015:
000ea2 30e2      	CPI  R30,LOW(0x2)
000ea3 f429      	BRNE _0x20A0016
000ea4 81a8      	LD   R26,Y
000ea5 81b9      	LDD  R27,Y+1
000ea6 940e 12c8 	CALL __EEPROMRDB
000ea8 c00d      	RJMP _0x2100002
                 _0x20A0016:
000ea9 30e3      	CPI  R30,LOW(0x3)
000eaa f441      	BRNE _0x20A0018
000eab 81a8      	LD   R26,Y
000eac 81b9      	LDD  R27,Y+1
                +
000ead 91e0 0179+LDS R30 , _glcd_state + ( 25 )
000eaf 91f0 017a+LDS R31 , _glcd_state + ( 25 ) + 1
000eb1 9509     +ICALL
                 	__CALL1MN _glcd_state,25
000eb2 c003      	RJMP _0x2100002
                 _0x20A0018:
000eb3 81a8      	LD   R26,Y
000eb4 81b9      	LDD  R27,Y+1
000eb5 91ec      	LD   R30,X
                 _0x2100002:
000eb6 9623      	ADIW R28,3
000eb7 9508      	RET
                 ; .FEND
                 _glcd_writemem:
                 ; .FSTART _glcd_writemem
000eb8 93aa      	ST   -Y,R26
000eb9 81eb      	LDD  R30,Y+3
000eba 30e0      	CPI  R30,0
000ebb f429      	BRNE _0x20A001C
000ebc 81e8      	LD   R30,Y
000ebd 81a9      	LDD  R26,Y+1
000ebe 81ba      	LDD  R27,Y+1+1
000ebf 93ec      	ST   X,R30
000ec0 c014      	RJMP _0x20A001B
                 _0x20A001C:
000ec1 30e2      	CPI  R30,LOW(0x2)
000ec2 f431      	BRNE _0x20A001D
000ec3 81e8      	LD   R30,Y
000ec4 81a9      	LDD  R26,Y+1
000ec5 81ba      	LDD  R27,Y+1+1
000ec6 940e 12d4 	CALL __EEPROMWRB
000ec8 c00c      	RJMP _0x20A001B
                 _0x20A001D:
000ec9 30e3      	CPI  R30,LOW(0x3)
000eca f451      	BRNE _0x20A001B
000ecb 81e9      	LDD  R30,Y+1
000ecc 81fa      	LDD  R31,Y+1+1
000ecd 93fa      	ST   -Y,R31
000ece 93ea      	ST   -Y,R30
000ecf 81aa      	LDD  R26,Y+2
                +
000ed0 91e0 017b+LDS R30 , _glcd_state + ( 27 )
000ed2 91f0 017c+LDS R31 , _glcd_state + ( 27 ) + 1
000ed4 9509     +ICALL
                 	__CALL1MN _glcd_state,27
                 _0x20A001B:
                 _0x2100001:
000ed5 9624      	ADIW R28,4
000ed6 9508      	RET
                 ; .FEND
                 
                 	.CSEG
                 
                 	.DSEG
                 
                 	.CSEG
                 
                 	.CSEG
                 
                 	.DSEG
                 _glcd_state:
000160           	.BYTE 0x1D
                 _i:
00017d           	.BYTE 0x2
                 _count:
00017f           	.BYTE 0x4
                 _j:
000183           	.BYTE 0x2
                 _myMax:
000185           	.BYTE 0x2
                 _myMin:
000187           	.BYTE 0x2
                 _x:
000189           	.BYTE 0x4
                 _y:
00018d           	.BYTE 0x4
                 _second:
000191           	.BYTE 0x2
                 _minute:
000193           	.BYTE 0x2
                 _hour:
000195           	.BYTE 0x2
                 _ks0108_coord_G100:
000197           	.BYTE 0x3
                 __seed_G106:
00019a           	.BYTE 0x4
                 
                 	.CSEG
                 ;OPTIMIZER ADDED SUBROUTINE, CALLED 2 TIMES, CODE SIZE REDUCTION:5 WORDS
                 SUBOPT_0x0:
000ed7 e0e0      	LDI  R30,LOW(0)
000ed8 93e0 017d 	STS  _i,R30
000eda 93e0 017e 	STS  _i+1,R30
000edc 93e0 0183 	STS  _j,R30
000ede 93e0 0184 	STS  _j+1,R30
000ee0 9508      	RET
                 
                 ;OPTIMIZER ADDED SUBROUTINE, CALLED 2 TIMES, CODE SIZE REDUCTION:6 WORDS
                 SUBOPT_0x1:
000ee1 e0e8      	LDI  R30,LOW(8)
000ee2 e0f0      	LDI  R31,HIGH(8)
000ee3 93e0 0185 	STS  _myMax,R30
000ee5 93f0 0186 	STS  _myMax+1,R31
000ee7 e0e0      	LDI  R30,LOW(0)
000ee8 93e0 0187 	STS  _myMin,R30
000eea 93e0 0188 	STS  _myMin+1,R30
000eec 9508      	RET
                 
                 ;OPTIMIZER ADDED SUBROUTINE, CALLED 2 TIMES, CODE SIZE REDUCTION:4 WORDS
                 SUBOPT_0x2:
000eed 91e4      	LPM  R30,Z
000eee 95e0      	COM  R30
000eef bbe8      	OUT  0x18,R30
000ef0 91e0 0183 	LDS  R30,_j
000ef2 e0a1      	LDI  R26,LOW(1)
000ef3 940e 1230 	CALL __LSLB12
000ef5 bbeb      	OUT  0x1B,R30
000ef6 9508      	RET
                 
                 ;OPTIMIZER ADDED SUBROUTINE, CALLED 4 TIMES, CODE SIZE REDUCTION:6 WORDS
                 SUBOPT_0x3:
000ef7 91ed      	LD   R30,X+
000ef8 91fd      	LD   R31,X+
000ef9 9631      	ADIW R30,1
000efa 93fe      	ST   -X,R31
000efb 93ee      	ST   -X,R30
000efc 9508      	RET
                 
                 ;OPTIMIZER ADDED SUBROUTINE, CALLED 15 TIMES, CODE SIZE REDUCTION:25 WORDS
                 SUBOPT_0x4:
000efd 93e0 0185 	STS  _myMax,R30
000eff 93f0 0186 	STS  _myMax+1,R31
000f01 9508      	RET
                 
                 ;OPTIMIZER ADDED SUBROUTINE, CALLED 15 TIMES, CODE SIZE REDUCTION:25 WORDS
                 SUBOPT_0x5:
000f02 93e0 0187 	STS  _myMin,R30
000f04 93f0 0188 	STS  _myMin+1,R31
000f06 9508      	RET
                 
                 ;OPTIMIZER ADDED SUBROUTINE, CALLED 5 TIMES, CODE SIZE REDUCTION:5 WORDS
                 SUBOPT_0x6:
000f07 e3ef      	LDI  R30,LOW(63)
000f08 93ea      	ST   -Y,R30
000f09 e1ef      	LDI  R30,LOW(31)
000f0a 93ea      	ST   -Y,R30
000f0b 9508      	RET
                 
                 ;OPTIMIZER ADDED SUBROUTINE, CALLED 2 TIMES, CODE SIZE REDUCTION:1 WORDS
                 SUBOPT_0x7:
000f0c e0e1      	LDI  R30,LOW(1)
                +
000f0d 93e0 0168+STS _glcd_state + ( 8 ) , R30
                 	__PUTB1MN _glcd_state,8
000f0f efef      	LDI  R30,LOW(255)
                +
000f10 93e0 0169+STS _glcd_state + ( 9 ) , R30
                 	__PUTB1MN _glcd_state,9
000f12 9508      	RET
                 
                 ;OPTIMIZER ADDED SUBROUTINE, CALLED 2 TIMES, CODE SIZE REDUCTION:9 WORDS
                 SUBOPT_0x8:
000f13 91e0 0191 	LDS  R30,_second
000f15 91f0 0192 	LDS  R31,_second+1
000f17 e0a6      	LDI  R26,LOW(6)
000f18 e0b0      	LDI  R27,HIGH(6)
000f19 940e 1277 	CALL __MULW12
000f1b 940e 124a 	CALL __CWD1
000f1d 940e 10e7 	CALL __CDF1
000f1f 01df      	MOVW R26,R30
000f20 01cb      	MOVW R24,R22
000f21 9508      	RET
                 
                 ;OPTIMIZER ADDED SUBROUTINE, CALLED 2 TIMES, CODE SIZE REDUCTION:1 WORDS
                 SUBOPT_0x9:
                +
000f22 e0a0     +LDI R26 , LOW ( 0x41C80000 )
000f23 e0b0     +LDI R27 , HIGH ( 0x41C80000 )
000f24 ec88     +LDI R24 , BYTE3 ( 0x41C80000 )
000f25 e491     +LDI R25 , BYTE4 ( 0x41C80000 )
                 	__GETD2N 0x41C80000
000f26 940e 1171 	CALL __MULF12
000f28 9508      	RET
                 
                 ;OPTIMIZER ADDED SUBROUTINE, CALLED 3 TIMES, CODE SIZE REDUCTION:5 WORDS
                 SUBOPT_0xA:
000f29 e8a9      	LDI  R26,LOW(_x)
000f2a e0b1      	LDI  R27,HIGH(_x)
000f2b 940e 10b0 	CALL __CFD1
000f2d 940e 129d 	CALL __PUTDP1
000f2f 9508      	RET
                 
                 ;OPTIMIZER ADDED SUBROUTINE, CALLED 3 TIMES, CODE SIZE REDUCTION:9 WORDS
                 SUBOPT_0xB:
000f30 e8ad      	LDI  R26,LOW(_y)
000f31 e0b1      	LDI  R27,HIGH(_y)
000f32 940e 10b0 	CALL __CFD1
000f34 940e 129d 	CALL __PUTDP1
000f36 cfd0      	RJMP SUBOPT_0x6
                 
                 ;OPTIMIZER ADDED SUBROUTINE, CALLED 3 TIMES, CODE SIZE REDUCTION:15 WORDS
                 SUBOPT_0xC:
000f37 91e0 0189 	LDS  R30,_x
000f39 5ce1      	SUBI R30,-LOW(63)
000f3a 93ea      	ST   -Y,R30
000f3b 91a0 018d 	LDS  R26,_y
000f3d e1ef      	LDI  R30,LOW(31)
000f3e 1bea      	SUB  R30,R26
000f3f 2fae      	MOV  R26,R30
000f40 940c 0a96 	JMP  _glcd_line
                 
                 ;OPTIMIZER ADDED SUBROUTINE, CALLED 2 TIMES, CODE SIZE REDUCTION:9 WORDS
                 SUBOPT_0xD:
000f42 91e0 0193 	LDS  R30,_minute
000f44 91f0 0194 	LDS  R31,_minute+1
000f46 e0a6      	LDI  R26,LOW(6)
000f47 e0b0      	LDI  R27,HIGH(6)
000f48 940e 1277 	CALL __MULW12
000f4a 940e 124a 	CALL __CWD1
000f4c 940e 10e7 	CALL __CDF1
000f4e 01df      	MOVW R26,R30
000f4f 01cb      	MOVW R24,R22
000f50 9508      	RET
                 
                 ;OPTIMIZER ADDED SUBROUTINE, CALLED 2 TIMES, CODE SIZE REDUCTION:1 WORDS
                 SUBOPT_0xE:
                +
000f51 e0a0     +LDI R26 , LOW ( 0x41A00000 )
000f52 e0b0     +LDI R27 , HIGH ( 0x41A00000 )
000f53 ea80     +LDI R24 , BYTE3 ( 0x41A00000 )
000f54 e491     +LDI R25 , BYTE4 ( 0x41A00000 )
                 	__GETD2N 0x41A00000
000f55 940e 1171 	CALL __MULF12
000f57 9508      	RET
                 
                 ;OPTIMIZER ADDED SUBROUTINE, CALLED 2 TIMES, CODE SIZE REDUCTION:9 WORDS
                 SUBOPT_0xF:
000f58 91e0 0195 	LDS  R30,_hour
000f5a 91f0 0196 	LDS  R31,_hour+1
000f5c e0a6      	LDI  R26,LOW(6)
000f5d e0b0      	LDI  R27,HIGH(6)
000f5e 940e 1277 	CALL __MULW12
000f60 940e 124a 	CALL __CWD1
000f62 940e 10e7 	CALL __CDF1
000f64 01df      	MOVW R26,R30
000f65 01cb      	MOVW R24,R22
000f66 9508      	RET
                 
                 ;OPTIMIZER ADDED SUBROUTINE, CALLED 2 TIMES, CODE SIZE REDUCTION:1 WORDS
                 SUBOPT_0x10:
                +
000f67 e0a0     +LDI R26 , LOW ( 0x41700000 )
000f68 e0b0     +LDI R27 , HIGH ( 0x41700000 )
000f69 e780     +LDI R24 , BYTE3 ( 0x41700000 )
000f6a e491     +LDI R25 , BYTE4 ( 0x41700000 )
                 	__GETD2N 0x41700000
000f6b 940e 1171 	CALL __MULF12
000f6d 9508      	RET
                 
                 ;OPTIMIZER ADDED SUBROUTINE, CALLED 2 TIMES, CODE SIZE REDUCTION:4 WORDS
                 SUBOPT_0x11:
000f6e 9891      	CBI  0x12,1
000f6f efef      	LDI  R30,LOW(255)
000f70 bbe4      	OUT  0x14,R30
000f71 81e8      	LD   R30,Y
000f72 bbe5      	OUT  0x15,R30
000f73 940e 0680 	CALL _ks0108_enable_G100
000f75 940c 0684 	JMP  _ks0108_disable_G100
                 
                 ;OPTIMIZER ADDED SUBROUTINE, CALLED 2 TIMES, CODE SIZE REDUCTION:1 WORDS
                 SUBOPT_0x12:
000f77 95e6      	LSR  R30
000f78 95e6      	LSR  R30
000f79 95e6      	LSR  R30
000f7a 2fae      	MOV  R26,R30
000f7b 940c 06bf 	JMP  _ks0108_gotoxp_G100
                 
                 ;OPTIMIZER ADDED SUBROUTINE, CALLED 3 TIMES, CODE SIZE REDUCTION:1 WORDS
                 SUBOPT_0x13:
000f7d 940e 06e3 	CALL _ks0108_wrdata_G100
000f7f 940c 06ce 	JMP  _ks0108_nextx_G100
                 
                 ;OPTIMIZER ADDED SUBROUTINE, CALLED 3 TIMES, CODE SIZE REDUCTION:1 WORDS
                 SUBOPT_0x14:
000f81 0fea      	ADD  R30,R26
000f82 1ffb      	ADC  R31,R27
000f83 83ee      	STD  Y+6,R30
000f84 83ff      	STD  Y+6+1,R31
000f85 9508      	RET
                 
                 ;OPTIMIZER ADDED SUBROUTINE, CALLED 2 TIMES, CODE SIZE REDUCTION:8 WORDS
                 SUBOPT_0x15:
000f86 85ec      	LDD  R30,Y+12
000f87 93ea      	ST   -Y,R30
000f88 81ef      	LDD  R30,Y+7
000f89 85f8      	LDD  R31,Y+7+1
000f8a 9631      	ADIW R30,1
000f8b 83ef      	STD  Y+7,R30
000f8c 87f8      	STD  Y+7+1,R31
000f8d 9731      	SBIW R30,1
000f8e 93fa      	ST   -Y,R31
000f8f 93ea      	ST   -Y,R30
000f90 e0a0      	LDI  R26,LOW(0)
000f91 940c 0eb8 	JMP  _glcd_writemem
                 
                 ;OPTIMIZER ADDED SUBROUTINE, CALLED 4 TIMES, CODE SIZE REDUCTION:15 WORDS
                 SUBOPT_0x16:
000f93 85ec      	LDD  R30,Y+12
000f94 93ea      	ST   -Y,R30
000f95 81ef      	LDD  R30,Y+7
000f96 85f8      	LDD  R31,Y+7+1
000f97 9631      	ADIW R30,1
000f98 83ef      	STD  Y+7,R30
000f99 87f8      	STD  Y+7+1,R31
000f9a 9731      	SBIW R30,1
000f9b 9508      	RET
                 
                 ;OPTIMIZER ADDED SUBROUTINE, CALLED 3 TIMES, CODE SIZE REDUCTION:5 WORDS
                 SUBOPT_0x17:
000f9c 2766      	CLR  R22
000f9d 2777      	CLR  R23
000f9e 01df      	MOVW R26,R30
000f9f 01cb      	MOVW R24,R22
000fa0 940c 0e99 	JMP  _glcd_readmem
                 
                 ;OPTIMIZER ADDED SUBROUTINE, CALLED 3 TIMES, CODE SIZE REDUCTION:1 WORDS
                 SUBOPT_0x18:
000fa2 935a      	ST   -Y,R21
000fa3 85aa      	LDD  R26,Y+10
000fa4 940c 0e71 	JMP  _glcd_mappixcolor1bit
                 
                 ;OPTIMIZER ADDED SUBROUTINE, CALLED 3 TIMES, CODE SIZE REDUCTION:3 WORDS
                 SUBOPT_0x19:
000fa6 930a      	ST   -Y,R16
000fa7 9503      	INC  R16
000fa8 89e8      	LDD  R30,Y+16
000fa9 93ea      	ST   -Y,R30
000faa 935a      	ST   -Y,R21
000fab 9508      	RET
                 
                 ;OPTIMIZER ADDED SUBROUTINE, CALLED 2 TIMES, CODE SIZE REDUCTION:1 WORDS
                 SUBOPT_0x1A:
000fac 930a      	ST   -Y,R16
000fad 9503      	INC  R16
000fae 89a8      	LDD  R26,Y+16
000faf 940e 06f5 	CALL _ks0108_rdbyte_G100
000fb1 23e4      	AND  R30,R20
000fb2 9508      	RET
                 
                 ;OPTIMIZER ADDED SUBROUTINE, CALLED 2 TIMES, CODE SIZE REDUCTION:5 WORDS
                 SUBOPT_0x1B:
000fb3 2f5e      	MOV  R21,R30
000fb4 85ec      	LDD  R30,Y+12
000fb5 93ea      	ST   -Y,R30
000fb6 81af      	LDD  R26,Y+7
000fb7 85b8      	LDD  R27,Y+7+1
000fb8 2788      	CLR  R24
000fb9 2799      	CLR  R25
000fba 940e 0e99 	CALL _glcd_readmem
000fbc 2e1e      	MOV  R1,R30
000fbd 9508      	RET
                 
                 ;OPTIMIZER ADDED SUBROUTINE, CALLED 2 TIMES, CODE SIZE REDUCTION:9 WORDS
                 SUBOPT_0x1C:
000fbe 930a      	ST   -Y,R16
000fbf 9503      	INC  R16
000fc0 89e8      	LDD  R30,Y+16
000fc1 93ea      	ST   -Y,R30
000fc2 85ee      	LDD  R30,Y+14
000fc3 93ea      	ST   -Y,R30
000fc4 85e9      	LDD  R30,Y+9
000fc5 85fa      	LDD  R31,Y+9+1
000fc6 9631      	ADIW R30,1
000fc7 87e9      	STD  Y+9,R30
000fc8 87fa      	STD  Y+9+1,R31
000fc9 9731      	SBIW R30,1
000fca cfd1      	RJMP SUBOPT_0x17
                 
                 ;OPTIMIZER ADDED SUBROUTINE, CALLED 2 TIMES, CODE SIZE REDUCTION:1 WORDS
                 SUBOPT_0x1D:
000fcb 93ba      	ST   -Y,R27
000fcc 93aa      	ST   -Y,R26
000fcd 81a8      	LD   R26,Y
000fce 81b9      	LDD  R27,Y+1
000fcf 940e 12e5 	CALL __CPW02
000fd1 9508      	RET
                 
                 ;OPTIMIZER ADDED SUBROUTINE, CALLED 3 TIMES, CODE SIZE REDUCTION:1 WORDS
                 SUBOPT_0x1E:
000fd2 83ed      	STD  Y+5,R30
000fd3 83fe      	STD  Y+5+1,R31
000fd4 9508      	RET
                 
                 ;OPTIMIZER ADDED SUBROUTINE, CALLED 3 TIMES, CODE SIZE REDUCTION:7 WORDS
                 SUBOPT_0x1F:
000fd5 81ae      	LDD  R26,Y+6
000fd6 5faf      	SUBI R26,-LOW(1)
000fd7 83ae      	STD  Y+6,R26
000fd8 50a1      	SUBI R26,LOW(1)
                +
000fd9 91e0 0168+LDS R30 , _glcd_state + ( 8 )
                 	__GETB1MN _glcd_state,8
000fdb 17ae      	CP   R26,R30
000fdc 9508      	RET
                 
                 ;OPTIMIZER ADDED SUBROUTINE, CALLED 3 TIMES, CODE SIZE REDUCTION:1 WORDS
                 SUBOPT_0x20:
000fdd 933a      	ST   -Y,R19
000fde 85aa      	LDD  R26,Y+10
000fdf 940c 0a6e 	JMP  _glcd_putpixelm_G101
                 
                 ;OPTIMIZER ADDED SUBROUTINE, CALLED 2 TIMES, CODE SIZE REDUCTION:1 WORDS
                 SUBOPT_0x21:
000fe1 85a9      	LDD  R26,Y+9
000fe2 85ba      	LDD  R27,Y+9+1
000fe3 0fea      	ADD  R30,R26
000fe4 1ffb      	ADC  R31,R27
000fe5 87e9      	STD  Y+9,R30
000fe6 87fa      	STD  Y+9+1,R31
000fe7 9508      	RET
                 
                 ;OPTIMIZER ADDED SUBROUTINE, CALLED 2 TIMES, CODE SIZE REDUCTION:1 WORDS
                 SUBOPT_0x22:
000fe8 85e9      	LDD  R30,Y+9
000fe9 85fa      	LDD  R31,Y+9+1
000fea 1bea      	SUB  R30,R26
000feb 0bfb      	SBC  R31,R27
000fec 87e9      	STD  Y+9,R30
000fed 87fa      	STD  Y+9+1,R31
000fee 9508      	RET
                 
                 ;OPTIMIZER ADDED SUBROUTINE, CALLED 2 TIMES, CODE SIZE REDUCTION:1 WORDS
                 SUBOPT_0x23:
000fef e0f0      	LDI  R31,0
000ff0 0fea      	ADD  R30,R26
000ff1 1ffb      	ADC  R31,R27
000ff2 018f      	MOVW R16,R30
000ff3 89a9      	LDD  R26,Y+17
000ff4 27bb      	CLR  R27
000ff5 9508      	RET
                 
                 ;OPTIMIZER ADDED SUBROUTINE, CALLED 2 TIMES, CODE SIZE REDUCTION:1 WORDS
                 SUBOPT_0x24:
000ff6 e0f0      	LDI  R31,0
000ff7 1bae      	SUB  R26,R30
000ff8 0bbf      	SBC  R27,R31
000ff9 019d      	MOVW R18,R26
000ffa 89a9      	LDD  R26,Y+17
000ffb 27bb      	CLR  R27
000ffc 9508      	RET
                 
                 ;OPTIMIZER ADDED SUBROUTINE, CALLED 2 TIMES, CODE SIZE REDUCTION:2 WORDS
                 SUBOPT_0x25:
000ffd e0f0      	LDI  R31,0
000ffe 0fea      	ADD  R30,R26
000fff 1ffb      	ADC  R31,R27
001000 01af      	MOVW R20,R30
001001 85e8      	LDD  R30,Y+8
001002 78e1      	ANDI R30,LOW(0x81)
001003 38e1      	CPI  R30,LOW(0x81)
001004 9508      	RET
                 
                 ;OPTIMIZER ADDED SUBROUTINE, CALLED 4 TIMES, CODE SIZE REDUCTION:15 WORDS
                 SUBOPT_0x26:
001005 1bea      	SUB  R30,R26
001006 0bfb      	SBC  R31,R27
001007 010f      	MOVW R0,R30
001008 01df      	MOVW R26,R30
001009 85eb      	LDD  R30,Y+11
00100a 85fc      	LDD  R31,Y+11+1
00100b 17ae      	CP   R26,R30
00100c 07bf      	CPC  R27,R31
00100d 9508      	RET
                 
                 ;OPTIMIZER ADDED SUBROUTINE, CALLED 4 TIMES, CODE SIZE REDUCTION:3 WORDS
                 SUBOPT_0x27:
00100e 85e9      	LDD  R30,Y+9
00100f 85fa      	LDD  R31,Y+9+1
001010 15e0      	CP   R30,R0
001011 05f1      	CPC  R31,R1
001012 9508      	RET
                 
                 ;OPTIMIZER ADDED SUBROUTINE, CALLED 4 TIMES, CODE SIZE REDUCTION:3 WORDS
                 SUBOPT_0x28:
001013 930a      	ST   -Y,R16
001014 2fa2      	MOV  R26,R18
001015 940c 0a07 	JMP  _glcd_setpixel
                 
                 ;OPTIMIZER ADDED SUBROUTINE, CALLED 2 TIMES, CODE SIZE REDUCTION:3 WORDS
                 SUBOPT_0x29:
001017 930a      	ST   -Y,R16
001018 2fa2      	MOV  R26,R18
001019 50a2      	SUBI R26,LOW(2)
00101a 940e 07ab 	CALL _glcd_getpixel
00101c 2fae      	MOV  R26,R30
00101d 81ee      	LDD  R30,Y+6
00101e 17ea      	CP   R30,R26
00101f 9508      	RET
                 
                 ;OPTIMIZER ADDED SUBROUTINE, CALLED 3 TIMES, CODE SIZE REDUCTION:1 WORDS
                 SUBOPT_0x2A:
001020 85eb      	LDD  R30,Y+11
001021 85fc      	LDD  R31,Y+11+1
001022 17ae      	CP   R26,R30
001023 07bf      	CPC  R27,R31
001024 9508      	RET
                 
                 ;OPTIMIZER ADDED SUBROUTINE, CALLED 3 TIMES, CODE SIZE REDUCTION:1 WORDS
                 SUBOPT_0x2B:
001025 85e9      	LDD  R30,Y+9
001026 85fa      	LDD  R31,Y+9+1
001027 17ea      	CP   R30,R26
001028 07fb      	CPC  R31,R27
001029 9508      	RET
                 
                 ;OPTIMIZER ADDED SUBROUTINE, CALLED 4 TIMES, CODE SIZE REDUCTION:9 WORDS
                 SUBOPT_0x2C:
00102a 930a      	ST   -Y,R16
00102b 2fa4      	MOV  R26,R20
00102c 940e 0a07 	CALL _glcd_setpixel
00102e 81af      	LDD  R26,Y+7
00102f 30a2      	CPI  R26,LOW(0x2)
001030 9508      	RET
                 
                 ;OPTIMIZER ADDED SUBROUTINE, CALLED 2 TIMES, CODE SIZE REDUCTION:3 WORDS
                 SUBOPT_0x2D:
001031 930a      	ST   -Y,R16
001032 2fa4      	MOV  R26,R20
001033 5fae      	SUBI R26,-LOW(2)
001034 940e 07ab 	CALL _glcd_getpixel
001036 2fae      	MOV  R26,R30
001037 81ee      	LDD  R30,Y+6
001038 17ea      	CP   R30,R26
001039 9508      	RET
                 
                 ;OPTIMIZER ADDED SUBROUTINE, CALLED 2 TIMES, CODE SIZE REDUCTION:2 WORDS
                 SUBOPT_0x2E:
00103a 93ea      	ST   -Y,R30
00103b 2fa2      	MOV  R26,R18
00103c 940e 07ab 	CALL _glcd_getpixel
00103e 2fae      	MOV  R26,R30
00103f 81ee      	LDD  R30,Y+6
001040 17ea      	CP   R30,R26
001041 9508      	RET
                 
                 ;OPTIMIZER ADDED SUBROUTINE, CALLED 2 TIMES, CODE SIZE REDUCTION:2 WORDS
                 SUBOPT_0x2F:
001042 93ea      	ST   -Y,R30
001043 2fa4      	MOV  R26,R20
001044 940e 07ab 	CALL _glcd_getpixel
001046 2fae      	MOV  R26,R30
001047 81ee      	LDD  R30,Y+6
001048 17ea      	CP   R30,R26
001049 9508      	RET
                 
                 ;OPTIMIZER ADDED SUBROUTINE, CALLED 3 TIMES, CODE SIZE REDUCTION:1 WORDS
                 SUBOPT_0x30:
00104a 85e9      	LDD  R30,Y+9
00104b 93ea      	ST   -Y,R30
00104c 85e9      	LDD  R30,Y+9
00104d 93ea      	ST   -Y,R30
00104e 9508      	RET
                 
                 ;OPTIMIZER ADDED SUBROUTINE, CALLED 2 TIMES, CODE SIZE REDUCTION:1 WORDS
                 SUBOPT_0x31:
00104f 940e 12b6 	CALL __PUTPARD2
001051 940e 12ac 	CALL __GETD2S0
001053 9508      	RET
                 
                 ;OPTIMIZER ADDED SUBROUTINE, CALLED 8 TIMES, CODE SIZE REDUCTION:11 WORDS
                 SUBOPT_0x32:
                +
001054 81ad     +LDD R26 , Y + 5
001055 81be     +LDD R27 , Y + 5 + 1
001056 818f     +LDD R24 , Y + 5 + 2
001057 8598     +LDD R25 , Y + 5 + 3
                 	__GETD2S 5
001058 9508      	RET
                 
                 ;OPTIMIZER ADDED SUBROUTINE, CALLED 2 TIMES, CODE SIZE REDUCTION:1 WORDS
                 SUBOPT_0x33:
                +
001059 83ed     +STD Y + 5 , R30
00105a 83fe     +STD Y + 5 + 1 , R31
00105b 836f     +STD Y + 5 + 2 , R22
00105c 8778     +STD Y + 5 + 3 , R23
                 	__PUTD1S 5
00105d cff6      	RJMP SUBOPT_0x32
                 
                 ;OPTIMIZER ADDED SUBROUTINE, CALLED 3 TIMES, CODE SIZE REDUCTION:1 WORDS
                 SUBOPT_0x34:
                +
00105e 81ed     +LDD R30 , Y + 5
00105f 81fe     +LDD R31 , Y + 5 + 1
001060 816f     +LDD R22 , Y + 5 + 2
001061 8578     +LDD R23 , Y + 5 + 3
                 	__GETD1S 5
001062 9508      	RET
                 
                 ;OPTIMIZER ADDED SUBROUTINE, CALLED 2 TIMES, CODE SIZE REDUCTION:1 WORDS
                 SUBOPT_0x35:
001063 940e 111a 	CALL __SUBF12
                +
001065 83ed     +STD Y + 5 , R30
001066 83fe     +STD Y + 5 + 1 , R31
001067 836f     +STD Y + 5 + 2 , R22
001068 8778     +STD Y + 5 + 3 , R23
                 	__PUTD1S 5
001069 9508      	RET
                 
                 ;OPTIMIZER ADDED SUBROUTINE, CALLED 2 TIMES, CODE SIZE REDUCTION:1 WORDS
                 SUBOPT_0x36:
                +
00106a 81a9     +LDD R26 , Y + 1
00106b 81ba     +LDD R27 , Y + 1 + 1
00106c 818b     +LDD R24 , Y + 1 + 2
00106d 819c     +LDD R25 , Y + 1 + 3
                 	__GETD2S 1
00106e 940e 1171 	CALL __MULF12
001070 9508      	RET
                 
                 
                 	.CSEG
                 _delay_ms:
001071 9610      	adiw r26,0
001072 f039      	breq __delay_ms1
                 __delay_ms0:
                +
001073 ed80     +LDI R24 , LOW ( 0x7D0 )
001074 e097     +LDI R25 , HIGH ( 0x7D0 )
                +__DELAY_USW_LOOP :
001075 9701     +SBIW R24 , 1
001076 f7f1     +BRNE __DELAY_USW_LOOP
                 	__DELAY_USW 0x7D0
001077 95a8      	wdr
001078 9711      	sbiw r26,1
001079 f7c9      	brne __delay_ms0
                 __delay_ms1:
00107a 9508      	ret
                 
                 __ANEGF1:
00107b 9730      	SBIW R30,0
00107c 4060      	SBCI R22,0
00107d 4070      	SBCI R23,0
00107e f009      	BREQ __ANEGF10
00107f 5870      	SUBI R23,0x80
                 __ANEGF10:
001080 9508      	RET
                 
                 __ROUND_REPACK:
001081 2355      	TST  R21
001082 f442      	BRPL __REPACK
001083 3850      	CPI  R21,0x80
001084 f411      	BRNE __ROUND_REPACK0
001085 ffe0      	SBRS R30,0
001086 c004      	RJMP __REPACK
                 __ROUND_REPACK0:
001087 9631      	ADIW R30,1
001088 1f69      	ADC  R22,R25
001089 1f79      	ADC  R23,R25
00108a f06b      	BRVS __REPACK1
                 
                 __REPACK:
00108b e850      	LDI  R21,0x80
00108c 2757      	EOR  R21,R23
00108d f411      	BRNE __REPACK0
00108e 935f      	PUSH R21
00108f c0cf      	RJMP __ZERORES
                 __REPACK0:
001090 3f5f      	CPI  R21,0xFF
001091 f031      	BREQ __REPACK1
001092 0f66      	LSL  R22
001093 0c00      	LSL  R0
001094 9557      	ROR  R21
001095 9567      	ROR  R22
001096 2f75      	MOV  R23,R21
001097 9508      	RET
                 __REPACK1:
001098 935f      	PUSH R21
001099 2000      	TST  R0
00109a f00a      	BRMI __REPACK2
00109b c0cf      	RJMP __MAXRES
                 __REPACK2:
00109c c0c8      	RJMP __MINRES
                 
                 __UNPACK:
00109d e850      	LDI  R21,0x80
00109e 2e19      	MOV  R1,R25
00109f 2215      	AND  R1,R21
0010a0 0f88      	LSL  R24
0010a1 1f99      	ROL  R25
0010a2 2795      	EOR  R25,R21
0010a3 0f55      	LSL  R21
0010a4 9587      	ROR  R24
                 
                 __UNPACK1:
0010a5 e850      	LDI  R21,0x80
0010a6 2e07      	MOV  R0,R23
0010a7 2205      	AND  R0,R21
0010a8 0f66      	LSL  R22
0010a9 1f77      	ROL  R23
0010aa 2775      	EOR  R23,R21
0010ab 0f55      	LSL  R21
0010ac 9567      	ROR  R22
0010ad 9508      	RET
                 
                 __CFD1U:
0010ae 9468      	SET
0010af c001      	RJMP __CFD1U0
                 __CFD1:
0010b0 94e8      	CLT
                 __CFD1U0:
0010b1 935f      	PUSH R21
0010b2 dff2      	RCALL __UNPACK1
0010b3 3870      	CPI  R23,0x80
0010b4 f018      	BRLO __CFD10
0010b5 3f7f      	CPI  R23,0xFF
0010b6 f408      	BRCC __CFD10
0010b7 c0a7      	RJMP __ZERORES
                 __CFD10:
0010b8 e156      	LDI  R21,22
0010b9 1b57      	SUB  R21,R23
0010ba f4aa      	BRPL __CFD11
0010bb 9551      	NEG  R21
0010bc 3058      	CPI  R21,8
0010bd f40e      	BRTC __CFD19
0010be 3059      	CPI  R21,9
                 __CFD19:
0010bf f030      	BRLO __CFD17
0010c0 efef      	SER  R30
0010c1 efff      	SER  R31
0010c2 ef6f      	SER  R22
0010c3 e77f      	LDI  R23,0x7F
0010c4 f977      	BLD  R23,7
0010c5 c01a      	RJMP __CFD15
                 __CFD17:
0010c6 2777      	CLR  R23
0010c7 2355      	TST  R21
0010c8 f0b9      	BREQ __CFD15
                 __CFD18:
0010c9 0fee      	LSL  R30
0010ca 1fff      	ROL  R31
0010cb 1f66      	ROL  R22
0010cc 1f77      	ROL  R23
0010cd 955a      	DEC  R21
0010ce f7d1      	BRNE __CFD18
0010cf c010      	RJMP __CFD15
                 __CFD11:
0010d0 2777      	CLR  R23
                 __CFD12:
0010d1 3058      	CPI  R21,8
0010d2 f028      	BRLO __CFD13
0010d3 2fef      	MOV  R30,R31
0010d4 2ff6      	MOV  R31,R22
0010d5 2f67      	MOV  R22,R23
0010d6 5058      	SUBI R21,8
0010d7 cff9      	RJMP __CFD12
                 __CFD13:
0010d8 2355      	TST  R21
0010d9 f031      	BREQ __CFD15
                 __CFD14:
0010da 9576      	LSR  R23
0010db 9567      	ROR  R22
0010dc 95f7      	ROR  R31
0010dd 95e7      	ROR  R30
0010de 955a      	DEC  R21
0010df f7d1      	BRNE __CFD14
                 __CFD15:
0010e0 2000      	TST  R0
0010e1 f40a      	BRPL __CFD16
0010e2 d145      	RCALL __ANEGD1
                 __CFD16:
0010e3 915f      	POP  R21
0010e4 9508      	RET
                 
                 __CDF1U:
0010e5 9468      	SET
0010e6 c001      	RJMP __CDF1U0
                 __CDF1:
0010e7 94e8      	CLT
                 __CDF1U0:
0010e8 9730      	SBIW R30,0
0010e9 4060      	SBCI R22,0
0010ea 4070      	SBCI R23,0
0010eb f0b1      	BREQ __CDF10
0010ec 2400      	CLR  R0
0010ed f026      	BRTS __CDF11
0010ee 2377      	TST  R23
0010ef f412      	BRPL __CDF11
0010f0 9400      	COM  R0
0010f1 d136      	RCALL __ANEGD1
                 __CDF11:
0010f2 2e17      	MOV  R1,R23
0010f3 e17e      	LDI  R23,30
0010f4 2011      	TST  R1
                 __CDF12:
0010f5 f032      	BRMI __CDF13
0010f6 957a      	DEC  R23
0010f7 0fee      	LSL  R30
0010f8 1fff      	ROL  R31
0010f9 1f66      	ROL  R22
0010fa 1c11      	ROL  R1
0010fb cff9      	RJMP __CDF12
                 __CDF13:
0010fc 2fef      	MOV  R30,R31
0010fd 2ff6      	MOV  R31,R22
0010fe 2d61      	MOV  R22,R1
0010ff 935f      	PUSH R21
001100 df8a      	RCALL __REPACK
001101 915f      	POP  R21
                 __CDF10:
001102 9508      	RET
                 
                 __SWAPACC:
001103 934f      	PUSH R20
001104 01af      	MOVW R20,R30
001105 01fd      	MOVW R30,R26
001106 01da      	MOVW R26,R20
001107 01ab      	MOVW R20,R22
001108 01bc      	MOVW R22,R24
001109 01ca      	MOVW R24,R20
00110a 2d40      	MOV  R20,R0
00110b 2c01      	MOV  R0,R1
00110c 2e14      	MOV  R1,R20
00110d 914f      	POP  R20
00110e 9508      	RET
                 
                 __UADD12:
00110f 0fea      	ADD  R30,R26
001110 1ffb      	ADC  R31,R27
001111 1f68      	ADC  R22,R24
001112 9508      	RET
                 
                 __NEGMAN1:
001113 95e0      	COM  R30
001114 95f0      	COM  R31
001115 9560      	COM  R22
001116 5fef      	SUBI R30,-1
001117 4fff      	SBCI R31,-1
001118 4f6f      	SBCI R22,-1
001119 9508      	RET
                 
                 __SUBF12:
00111a 935f      	PUSH R21
00111b df81      	RCALL __UNPACK
00111c 3890      	CPI  R25,0x80
00111d f171      	BREQ __ADDF129
00111e e850      	LDI  R21,0x80
00111f 2615      	EOR  R1,R21
                 
001120 c004      	RJMP __ADDF120
                 
                 __ADDF12:
001121 935f      	PUSH R21
001122 df7a      	RCALL __UNPACK
001123 3890      	CPI  R25,0x80
001124 f139      	BREQ __ADDF129
                 
                 __ADDF120:
001125 3870      	CPI  R23,0x80
001126 f121      	BREQ __ADDF128
                 __ADDF121:
001127 2f57      	MOV  R21,R23
001128 1b59      	SUB  R21,R25
001129 f12b      	BRVS __ADDF1211
00112a f412      	BRPL __ADDF122
00112b dfd7      	RCALL __SWAPACC
00112c cffa      	RJMP __ADDF121
                 __ADDF122:
00112d 3158      	CPI  R21,24
00112e f018      	BRLO __ADDF123
00112f 27aa      	CLR  R26
001130 27bb      	CLR  R27
001131 2788      	CLR  R24
                 __ADDF123:
001132 3058      	CPI  R21,8
001133 f028      	BRLO __ADDF124
001134 2fab      	MOV  R26,R27
001135 2fb8      	MOV  R27,R24
001136 2788      	CLR  R24
001137 5058      	SUBI R21,8
001138 cff9      	RJMP __ADDF123
                 __ADDF124:
001139 2355      	TST  R21
00113a f029      	BREQ __ADDF126
                 __ADDF125:
00113b 9586      	LSR  R24
00113c 95b7      	ROR  R27
00113d 95a7      	ROR  R26
00113e 955a      	DEC  R21
00113f f7d9      	BRNE __ADDF125
                 __ADDF126:
001140 2d50      	MOV  R21,R0
001141 2551      	EOR  R21,R1
001142 f072      	BRMI __ADDF127
001143 dfcb      	RCALL __UADD12
001144 f438      	BRCC __ADDF129
001145 9567      	ROR  R22
001146 95f7      	ROR  R31
001147 95e7      	ROR  R30
001148 9573      	INC  R23
001149 f413      	BRVC __ADDF129
00114a c020      	RJMP __MAXRES
                 __ADDF128:
00114b dfb7      	RCALL __SWAPACC
                 __ADDF129:
00114c df3e      	RCALL __REPACK
00114d 915f      	POP  R21
00114e 9508      	RET
                 __ADDF1211:
00114f f7d8      	BRCC __ADDF128
001150 cffb      	RJMP __ADDF129
                 __ADDF127:
001151 1bea      	SUB  R30,R26
001152 0bfb      	SBC  R31,R27
001153 0b68      	SBC  R22,R24
001154 f051      	BREQ __ZERORES
001155 f410      	BRCC __ADDF1210
001156 9400      	COM  R0
001157 dfbb      	RCALL __NEGMAN1
                 __ADDF1210:
001158 2366      	TST  R22
001159 f392      	BRMI __ADDF129
00115a 0fee      	LSL  R30
00115b 1fff      	ROL  R31
00115c 1f66      	ROL  R22
00115d 957a      	DEC  R23
00115e f7cb      	BRVC __ADDF1210
                 
                 __ZERORES:
00115f 27ee      	CLR  R30
001160 27ff      	CLR  R31
001161 2766      	CLR  R22
001162 2777      	CLR  R23
001163 915f      	POP  R21
001164 9508      	RET
                 
                 __MINRES:
001165 efef      	SER  R30
001166 efff      	SER  R31
001167 e76f      	LDI  R22,0x7F
001168 ef7f      	SER  R23
001169 915f      	POP  R21
00116a 9508      	RET
                 
                 __MAXRES:
00116b efef      	SER  R30
00116c efff      	SER  R31
00116d e76f      	LDI  R22,0x7F
00116e e77f      	LDI  R23,0x7F
00116f 915f      	POP  R21
001170 9508      	RET
                 
                 __MULF12:
001171 935f      	PUSH R21
001172 df2a      	RCALL __UNPACK
001173 3870      	CPI  R23,0x80
001174 f351      	BREQ __ZERORES
001175 3890      	CPI  R25,0x80
001176 f341      	BREQ __ZERORES
001177 2401      	EOR  R0,R1
001178 9408      	SEC
001179 1f79      	ADC  R23,R25
00117a f423      	BRVC __MULF124
00117b f31c      	BRLT __ZERORES
                 __MULF125:
00117c 2000      	TST  R0
00117d f33a      	BRMI __MINRES
00117e cfec      	RJMP __MAXRES
                 __MULF124:
00117f 920f      	PUSH R0
001180 931f      	PUSH R17
001181 932f      	PUSH R18
001182 933f      	PUSH R19
001183 934f      	PUSH R20
001184 2711      	CLR  R17
001185 2722      	CLR  R18
001186 2799      	CLR  R25
001187 9f68      	MUL  R22,R24
001188 01a0      	MOVW R20,R0
001189 9f8f      	MUL  R24,R31
00118a 2d30      	MOV  R19,R0
00118b 0d41      	ADD  R20,R1
00118c 1f59      	ADC  R21,R25
00118d 9f6b      	MUL  R22,R27
00118e 0d30      	ADD  R19,R0
00118f 1d41      	ADC  R20,R1
001190 1f59      	ADC  R21,R25
001191 9f8e      	MUL  R24,R30
001192 d027      	RCALL __MULF126
001193 9fbf      	MUL  R27,R31
001194 d025      	RCALL __MULF126
001195 9f6a      	MUL  R22,R26
001196 d023      	RCALL __MULF126
001197 9fbe      	MUL  R27,R30
001198 d01d      	RCALL __MULF127
001199 9faf      	MUL  R26,R31
00119a d01b      	RCALL __MULF127
00119b 9fae      	MUL  R26,R30
00119c 0d11      	ADD  R17,R1
00119d 1f29      	ADC  R18,R25
00119e 1f39      	ADC  R19,R25
00119f 1f49      	ADC  R20,R25
0011a0 1f59      	ADC  R21,R25
0011a1 2fe3      	MOV  R30,R19
0011a2 2ff4      	MOV  R31,R20
0011a3 2f65      	MOV  R22,R21
0011a4 2f52      	MOV  R21,R18
0011a5 914f      	POP  R20
0011a6 913f      	POP  R19
0011a7 912f      	POP  R18
0011a8 911f      	POP  R17
0011a9 900f      	POP  R0
0011aa 2366      	TST  R22
0011ab f02a      	BRMI __MULF122
0011ac 0f55      	LSL  R21
0011ad 1fee      	ROL  R30
0011ae 1fff      	ROL  R31
0011af 1f66      	ROL  R22
0011b0 c002      	RJMP __MULF123
                 __MULF122:
0011b1 9573      	INC  R23
0011b2 f24b      	BRVS __MULF125
                 __MULF123:
0011b3 decd      	RCALL __ROUND_REPACK
0011b4 915f      	POP  R21
0011b5 9508      	RET
                 
                 __MULF127:
0011b6 0d10      	ADD  R17,R0
0011b7 1d21      	ADC  R18,R1
0011b8 1f39      	ADC  R19,R25
0011b9 c002      	RJMP __MULF128
                 __MULF126:
0011ba 0d20      	ADD  R18,R0
0011bb 1d31      	ADC  R19,R1
                 __MULF128:
0011bc 1f49      	ADC  R20,R25
0011bd 1f59      	ADC  R21,R25
0011be 9508      	RET
                 
                 __DIVF21:
0011bf 935f      	PUSH R21
0011c0 dedc      	RCALL __UNPACK
0011c1 3870      	CPI  R23,0x80
0011c2 f421      	BRNE __DIVF210
0011c3 2011      	TST  R1
                 __DIVF211:
0011c4 f40a      	BRPL __DIVF219
0011c5 cf9f      	RJMP __MINRES
                 __DIVF219:
0011c6 cfa4      	RJMP __MAXRES
                 __DIVF210:
0011c7 3890      	CPI  R25,0x80
0011c8 f409      	BRNE __DIVF218
                 __DIVF217:
0011c9 cf95      	RJMP __ZERORES
                 __DIVF218:
0011ca 2401      	EOR  R0,R1
0011cb 9408      	SEC
0011cc 0b97      	SBC  R25,R23
0011cd f41b      	BRVC __DIVF216
0011ce f3d4      	BRLT __DIVF217
0011cf 2000      	TST  R0
0011d0 cff3      	RJMP __DIVF211
                 __DIVF216:
0011d1 2f79      	MOV  R23,R25
0011d2 931f      	PUSH R17
0011d3 932f      	PUSH R18
0011d4 933f      	PUSH R19
0011d5 934f      	PUSH R20
0011d6 2411      	CLR  R1
0011d7 2711      	CLR  R17
0011d8 2722      	CLR  R18
0011d9 2733      	CLR  R19
0011da 2744      	CLR  R20
0011db 2755      	CLR  R21
0011dc e290      	LDI  R25,32
                 __DIVF212:
0011dd 17ae      	CP   R26,R30
0011de 07bf      	CPC  R27,R31
0011df 0786      	CPC  R24,R22
0011e0 0741      	CPC  R20,R17
0011e1 f030      	BRLO __DIVF213
0011e2 1bae      	SUB  R26,R30
0011e3 0bbf      	SBC  R27,R31
0011e4 0b86      	SBC  R24,R22
0011e5 0b41      	SBC  R20,R17
0011e6 9408      	SEC
0011e7 c001      	RJMP __DIVF214
                 __DIVF213:
0011e8 9488      	CLC
                 __DIVF214:
0011e9 1f55      	ROL  R21
0011ea 1f22      	ROL  R18
0011eb 1f33      	ROL  R19
0011ec 1c11      	ROL  R1
0011ed 1faa      	ROL  R26
0011ee 1fbb      	ROL  R27
0011ef 1f88      	ROL  R24
0011f0 1f44      	ROL  R20
0011f1 959a      	DEC  R25
0011f2 f751      	BRNE __DIVF212
0011f3 01f9      	MOVW R30,R18
0011f4 2d61      	MOV  R22,R1
0011f5 914f      	POP  R20
0011f6 913f      	POP  R19
0011f7 912f      	POP  R18
0011f8 911f      	POP  R17
0011f9 2366      	TST  R22
0011fa f032      	BRMI __DIVF215
0011fb 0f55      	LSL  R21
0011fc 1fee      	ROL  R30
0011fd 1fff      	ROL  R31
0011fe 1f66      	ROL  R22
0011ff 957a      	DEC  R23
001200 f243      	BRVS __DIVF217
                 __DIVF215:
001201 de7f      	RCALL __ROUND_REPACK
001202 915f      	POP  R21
001203 9508      	RET
                 
                 __CMPF12:
001204 2399      	TST  R25
001205 f09a      	BRMI __CMPF120
001206 2377      	TST  R23
001207 f042      	BRMI __CMPF121
001208 1797      	CP   R25,R23
001209 f048      	BRLO __CMPF122
00120a f429      	BRNE __CMPF121
00120b 17ae      	CP   R26,R30
00120c 07bf      	CPC  R27,R31
00120d 0786      	CPC  R24,R22
00120e f020      	BRLO __CMPF122
00120f f031      	BREQ __CMPF123
                 __CMPF121:
001210 9498      	CLZ
001211 9488      	CLC
001212 9508      	RET
                 __CMPF122:
001213 9498      	CLZ
001214 9408      	SEC
001215 9508      	RET
                 __CMPF123:
001216 9418      	SEZ
001217 9488      	CLC
001218 9508      	RET
                 __CMPF120:
001219 2377      	TST  R23
00121a f7c2      	BRPL __CMPF122
00121b 1797      	CP   R25,R23
00121c f398      	BRLO __CMPF121
00121d f7a9      	BRNE __CMPF122
00121e 17ea      	CP   R30,R26
00121f 07fb      	CPC  R31,R27
001220 0768      	CPC  R22,R24
001221 f388      	BRLO __CMPF122
001222 f399      	BREQ __CMPF123
001223 cfec      	RJMP __CMPF121
                 
                 __ANEGW1:
001224 95f1      	NEG  R31
001225 95e1      	NEG  R30
001226 40f0      	SBCI R31,0
001227 9508      	RET
                 
                 __ANEGD1:
001228 95f0      	COM  R31
001229 9560      	COM  R22
00122a 9570      	COM  R23
00122b 95e1      	NEG  R30
00122c 4fff      	SBCI R31,-1
00122d 4f6f      	SBCI R22,-1
00122e 4f7f      	SBCI R23,-1
00122f 9508      	RET
                 
                 __LSLB12:
001230 23ee      	TST  R30
001231 2e0e      	MOV  R0,R30
001232 2fea      	MOV  R30,R26
001233 f019      	BREQ __LSLB12R
                 __LSLB12L:
001234 0fee      	LSL  R30
001235 940a      	DEC  R0
001236 f7e9      	BRNE __LSLB12L
                 __LSLB12R:
001237 9508      	RET
                 
                 __LSRB12:
001238 23ee      	TST  R30
001239 2e0e      	MOV  R0,R30
00123a 2fea      	MOV  R30,R26
00123b f019      	BREQ __LSRB12R
                 __LSRB12L:
00123c 95e6      	LSR  R30
00123d 940a      	DEC  R0
00123e f7e9      	BRNE __LSRB12L
                 __LSRB12R:
00123f 9508      	RET
                 
                 __LSLW2:
001240 0fee      	LSL  R30
001241 1fff      	ROL  R31
001242 0fee      	LSL  R30
001243 1fff      	ROL  R31
001244 9508      	RET
                 
                 __ASRW2:
001245 95f5      	ASR  R31
001246 95e7      	ROR  R30
001247 95f5      	ASR  R31
001248 95e7      	ROR  R30
001249 9508      	RET
                 
                 __CWD1:
00124a 2f6f      	MOV  R22,R31
00124b 0f66      	ADD  R22,R22
00124c 0b66      	SBC  R22,R22
00124d 2f76      	MOV  R23,R22
00124e 9508      	RET
                 
                 __MULW12U:
00124f 9ffa      	MUL  R31,R26
001250 2df0      	MOV  R31,R0
001251 9feb      	MUL  R30,R27
001252 0df0      	ADD  R31,R0
001253 9fea      	MUL  R30,R26
001254 2de0      	MOV  R30,R0
001255 0df1      	ADD  R31,R1
001256 9508      	RET
                 
                 __MULD12U:
001257 9f7a      	MUL  R23,R26
001258 2d70      	MOV  R23,R0
001259 9f6b      	MUL  R22,R27
00125a 0d70      	ADD  R23,R0
00125b 9ff8      	MUL  R31,R24
00125c 0d70      	ADD  R23,R0
00125d 9fe9      	MUL  R30,R25
00125e 0d70      	ADD  R23,R0
00125f 9f6a      	MUL  R22,R26
001260 2d60      	MOV  R22,R0
001261 0d71      	ADD  R23,R1
001262 9ffb      	MUL  R31,R27
001263 0d60      	ADD  R22,R0
001264 1d71      	ADC  R23,R1
001265 9fe8      	MUL  R30,R24
001266 0d60      	ADD  R22,R0
001267 1d71      	ADC  R23,R1
001268 2788      	CLR  R24
001269 9ffa      	MUL  R31,R26
00126a 2df0      	MOV  R31,R0
00126b 0d61      	ADD  R22,R1
00126c 1f78      	ADC  R23,R24
00126d 9feb      	MUL  R30,R27
00126e 0df0      	ADD  R31,R0
00126f 1d61      	ADC  R22,R1
001270 1f78      	ADC  R23,R24
001271 9fea      	MUL  R30,R26
001272 2de0      	MOV  R30,R0
001273 0df1      	ADD  R31,R1
001274 1f68      	ADC  R22,R24
001275 1f78      	ADC  R23,R24
001276 9508      	RET
                 
                 __MULW12:
001277 d00e      	RCALL __CHKSIGNW
001278 dfd6      	RCALL __MULW12U
001279 f40e      	BRTC __MULW121
00127a dfa9      	RCALL __ANEGW1
                 __MULW121:
00127b 9508      	RET
                 
                 __MANDW12:
00127c 94e8      	CLT
00127d fff7      	SBRS R31,7
00127e c002      	RJMP __MANDW121
00127f dfa4      	RCALL __ANEGW1
001280 9468      	SET
                 __MANDW121:
001281 23ea      	AND  R30,R26
001282 23fb      	AND  R31,R27
001283 f40e      	BRTC __MANDW122
001284 df9f      	RCALL __ANEGW1
                 __MANDW122:
001285 9508      	RET
                 
                 __CHKSIGNW:
001286 94e8      	CLT
001287 fff7      	SBRS R31,7
001288 c002      	RJMP __CHKSW1
001289 df9a      	RCALL __ANEGW1
00128a 9468      	SET
                 __CHKSW1:
00128b ffb7      	SBRS R27,7
00128c c006      	RJMP __CHKSW2
00128d 95a0      	COM  R26
00128e 95b0      	COM  R27
00128f 9611      	ADIW R26,1
001290 f800      	BLD  R0,0
001291 9403      	INC  R0
001292 fa00      	BST  R0,0
                 __CHKSW2:
001293 9508      	RET
                 
                 __GETW1P:
001294 91ed      	LD   R30,X+
001295 91fc      	LD   R31,X
001296 9711      	SBIW R26,1
001297 9508      	RET
                 
                 __GETD1P_INC:
001298 91ed      	LD   R30,X+
001299 91fd      	LD   R31,X+
00129a 916d      	LD   R22,X+
00129b 917d      	LD   R23,X+
00129c 9508      	RET
                 
                 __PUTDP1:
00129d 93ed      	ST   X+,R30
00129e 93fd      	ST   X+,R31
00129f 936d      	ST   X+,R22
0012a0 937c      	ST   X,R23
0012a1 9508      	RET
                 
                 __PUTDP1_DEC:
0012a2 937e      	ST   -X,R23
0012a3 936e      	ST   -X,R22
0012a4 93fe      	ST   -X,R31
0012a5 93ee      	ST   -X,R30
0012a6 9508      	RET
                 
                 __GETD1S0:
0012a7 81e8      	LD   R30,Y
0012a8 81f9      	LDD  R31,Y+1
0012a9 816a      	LDD  R22,Y+2
0012aa 817b      	LDD  R23,Y+3
0012ab 9508      	RET
                 
                 __GETD2S0:
0012ac 81a8      	LD   R26,Y
0012ad 81b9      	LDD  R27,Y+1
0012ae 818a      	LDD  R24,Y+2
0012af 819b      	LDD  R25,Y+3
0012b0 9508      	RET
                 
                 __PUTD1S0:
0012b1 83e8      	ST   Y,R30
0012b2 83f9      	STD  Y+1,R31
0012b3 836a      	STD  Y+2,R22
0012b4 837b      	STD  Y+3,R23
0012b5 9508      	RET
                 
                 __PUTPARD2:
0012b6 939a      	ST   -Y,R25
0012b7 938a      	ST   -Y,R24
0012b8 93ba      	ST   -Y,R27
0012b9 93aa      	ST   -Y,R26
0012ba 9508      	RET
                 
                 __SWAPD12:
0012bb 2e18      	MOV  R1,R24
0012bc 2f86      	MOV  R24,R22
0012bd 2d61      	MOV  R22,R1
0012be 2e19      	MOV  R1,R25
0012bf 2f97      	MOV  R25,R23
0012c0 2d71      	MOV  R23,R1
                 
                 __SWAPW12:
0012c1 2e1b      	MOV  R1,R27
0012c2 2fbf      	MOV  R27,R31
0012c3 2df1      	MOV  R31,R1
                 
                 __SWAPB12:
0012c4 2e1a      	MOV  R1,R26
0012c5 2fae      	MOV  R26,R30
0012c6 2de1      	MOV  R30,R1
0012c7 9508      	RET
                 
                 __EEPROMRDB:
0012c8 99e1      	SBIC EECR,EEWE
0012c9 cffe      	RJMP __EEPROMRDB
0012ca 93ff      	PUSH R31
0012cb b7ff      	IN   R31,SREG
0012cc 94f8      	CLI
0012cd bbae      	OUT  EEARL,R26
0012ce bbbf      	OUT  EEARH,R27
0012cf 9ae0      	SBI  EECR,EERE
0012d0 b3ed      	IN   R30,EEDR
0012d1 bfff      	OUT  SREG,R31
0012d2 91ff      	POP  R31
0012d3 9508      	RET
                 
                 __EEPROMWRB:
0012d4 9be1      	SBIS EECR,EEWE
0012d5 c002      	RJMP __EEPROMWRB1
0012d6 95a8      	WDR
0012d7 cffc      	RJMP __EEPROMWRB
                 __EEPROMWRB1:
0012d8 b79f      	IN   R25,SREG
0012d9 94f8      	CLI
0012da bbae      	OUT  EEARL,R26
0012db bbbf      	OUT  EEARH,R27
0012dc 9ae0      	SBI  EECR,EERE
0012dd b38d      	IN   R24,EEDR
0012de 17e8      	CP   R30,R24
0012df f019      	BREQ __EEPROMWRB0
0012e0 bbed      	OUT  EEDR,R30
0012e1 9ae2      	SBI  EECR,EEMWE
0012e2 9ae1      	SBI  EECR,EEWE
                 __EEPROMWRB0:
0012e3 bf9f      	OUT  SREG,R25
0012e4 9508      	RET
                 
                 __CPW02:
0012e5 2400      	CLR  R0
0012e6 160a      	CP   R0,R26
0012e7 060b      	CPC  R0,R27
0012e8 9508      	RET
                 
                 __SAVELOCR6:
0012e9 935a      	ST   -Y,R21
                 __SAVELOCR5:
0012ea 934a      	ST   -Y,R20
                 __SAVELOCR4:
0012eb 933a      	ST   -Y,R19
                 __SAVELOCR3:
0012ec 932a      	ST   -Y,R18
                 __SAVELOCR2:
0012ed 931a      	ST   -Y,R17
0012ee 930a      	ST   -Y,R16
0012ef 9508      	RET
                 
                 __LOADLOCR6:
0012f0 815d      	LDD  R21,Y+5
                 __LOADLOCR5:
0012f1 814c      	LDD  R20,Y+4
                 __LOADLOCR4:
0012f2 813b      	LDD  R19,Y+3
                 __LOADLOCR3:
0012f3 812a      	LDD  R18,Y+2
                 __LOADLOCR2:
0012f4 8119      	LDD  R17,Y+1
0012f5 8108      	LD   R16,Y
0012f6 9508      	RET
                 
                 ;END OF CODE MARKER
                 __END_OF_CODE:


RESOURCE USE INFORMATION
------------------------

Notice:
The register and instruction counts are symbol table hit counts,
and hence implicitly used resources are not counted, eg, the
'lpm' instruction without operands implicitly uses r0 and z,
none of which are counted.

x,y,z are separate entities in the symbol table and are
counted separately from r26..r31 here.

.dseg memory usage only counts static data declared with .byte

ATmega16 register use summary:
r0 :  53 r1 :  45 r2 :   0 r3 :   0 r4 :   0 r5 :   0 r6 :   0 r7 :   0 
r8 :   0 r9 :   0 r10:   0 r11:   0 r12:   0 r13:   0 r14:   0 r15:   2 
r16:  66 r17: 121 r18:  60 r19:  60 r20:  50 r21:  99 r22: 101 r23:  92 
r24:  69 r25:  63 r26: 464 r27: 177 r28:  24 r29:   1 r30: 939 r31: 287 
x  :  23 y  : 669 z  :  16 
Registers used: 22 out of 35 (62.9%)

ATmega16 instruction use summary:
.lds  :   0 .lds.l:   0 .sts  :   0 .sts.l:   0 adc   :  35 add   :  36 
adiw  :  29 and   :  17 andi  :  25 asr   :   2 bclr  :   0 bld   :   3 
brbc  :   0 brbs  :   0 brcc  :   7 brcs  :   1 break :   0 breq  :  51 
brge  :  14 brhc  :   0 brhs  :   0 brid  :   0 brie  :   0 brlo  :  27 
brlt  :  15 brmi  :  13 brne  : 111 brpl  :  12 brsh  :  28 brtc  :   4 
brts  :   1 brvc  :   4 brvs  :   4 bset  :   0 bst   :   3 call  : 280 
cbi   :   9 cbr   :   1 clc   :   3 clh   :   0 cli   :   4 cln   :   0 
clr   :  63 cls   :   0 clt   :   5 clv   :   0 clz   :   2 com   :  19 
cp    :  43 cpc   :  48 cpi   : 131 cpse  :   0 dec   :  11 des   :   0 
eor   :   8 fmul  :   0 fmuls :   0 fmulsu:   0 icall :   2 ijmp  :   0 
in    :   6 inc   :   9 jmp   :  46 ld    :  50 ldd   : 361 ldi   : 375 
lds   :  62 lpm   :  19 lsl   :  21 lsr   :  18 mov   : 162 movw  :  38 
mul   :  22 muls  :   0 mulsu :   0 neg   :   4 nop   :   2 or    :   5 
ori   :   2 out   :  43 pop   :  33 push  :  33 rcall : 100 ret   : 115 
reti  :   1 rjmp  : 163 rol   :  31 ror   :  17 sbc   :  18 sbci  :  25 
sbi   :  19 sbic  :   1 sbis  :   1 sbiw  :  22 sbr   :   2 sbrc  :   1 
sbrs  :   6 sec   :   5 seh   :   0 sei   :   1 sen   :   0 ser   :   8 
ses   :   0 set   :   4 sev   :   0 sez   :   1 sleep :   0 spm   :   0 
st    : 189 std   :  93 sts   :  54 sub   :  25 subi  :  63 swap  :   1 
tst   :  28 wdr   :   2 
Instructions used: 85 out of 116 (73.3%)

ATmega16 memory use summary [bytes]:
Segment   Begin    End      Code   Data   Used    Size   Use%
---------------------------------------------------------------
[.cseg] 0x000000 0x0025ee   7632   2078   9710   16384  59.3%
[.dseg] 0x000060 0x00019e      0     62     62    1024   6.1%
[.eseg] 0x000000 0x000000      0      0      0     512   0.0%

Assembly complete, 0 errors, 6 warnings
